ARM GAS  /tmp/ccTwdjOX.s 			page 1


   1              		.cpu cortex-m4
   2              		.eabi_attribute 27, 1
   3              		.eabi_attribute 28, 1
   4              		.eabi_attribute 20, 1
   5              		.eabi_attribute 21, 1
   6              		.eabi_attribute 23, 3
   7              		.eabi_attribute 24, 1
   8              		.eabi_attribute 25, 1
   9              		.eabi_attribute 26, 1
  10              		.eabi_attribute 30, 1
  11              		.eabi_attribute 34, 1
  12              		.eabi_attribute 18, 4
  13              		.file	"stm32f4xx_hal_rtc_ex.c"
  14              		.text
  15              	.Ltext0:
  16              		.cfi_sections	.debug_frame
  17              		.section	.text.HAL_RTCEx_SetTimeStamp,"ax",%progbits
  18              		.align	1
  19              		.global	HAL_RTCEx_SetTimeStamp
  20              		.arch armv7e-m
  21              		.syntax unified
  22              		.thumb
  23              		.thumb_func
  24              		.fpu fpv4-sp-d16
  26              	HAL_RTCEx_SetTimeStamp:
  27              	.LVL0:
  28              	.LFB235:
  29              		.file 1 "Drivers/STM32F4xx_HAL_Driver/Src/stm32f4xx_hal_rtc_ex.c"
   1:Drivers/STM32F4xx_HAL_Driver/Src/stm32f4xx_hal_rtc_ex.c **** /**
   2:Drivers/STM32F4xx_HAL_Driver/Src/stm32f4xx_hal_rtc_ex.c ****   ******************************************************************************
   3:Drivers/STM32F4xx_HAL_Driver/Src/stm32f4xx_hal_rtc_ex.c ****   * @file    stm32f4xx_hal_rtc_ex.c
   4:Drivers/STM32F4xx_HAL_Driver/Src/stm32f4xx_hal_rtc_ex.c ****   * @author  MCD Application Team
   5:Drivers/STM32F4xx_HAL_Driver/Src/stm32f4xx_hal_rtc_ex.c ****   * @brief   Extended RTC HAL module driver.
   6:Drivers/STM32F4xx_HAL_Driver/Src/stm32f4xx_hal_rtc_ex.c ****   *          This file provides firmware functions to manage the following
   7:Drivers/STM32F4xx_HAL_Driver/Src/stm32f4xx_hal_rtc_ex.c ****   *          functionalities of the Real-Time Clock (RTC) Extended peripheral:
   8:Drivers/STM32F4xx_HAL_Driver/Src/stm32f4xx_hal_rtc_ex.c ****   *           + RTC Timestamp functions
   9:Drivers/STM32F4xx_HAL_Driver/Src/stm32f4xx_hal_rtc_ex.c ****   *           + RTC Tamper functions
  10:Drivers/STM32F4xx_HAL_Driver/Src/stm32f4xx_hal_rtc_ex.c ****   *           + RTC Wakeup functions
  11:Drivers/STM32F4xx_HAL_Driver/Src/stm32f4xx_hal_rtc_ex.c ****   *           + Extended Control functions
  12:Drivers/STM32F4xx_HAL_Driver/Src/stm32f4xx_hal_rtc_ex.c ****   *           + Extended RTC features functions
  13:Drivers/STM32F4xx_HAL_Driver/Src/stm32f4xx_hal_rtc_ex.c ****   *
  14:Drivers/STM32F4xx_HAL_Driver/Src/stm32f4xx_hal_rtc_ex.c ****   ******************************************************************************
  15:Drivers/STM32F4xx_HAL_Driver/Src/stm32f4xx_hal_rtc_ex.c ****   * @attention
  16:Drivers/STM32F4xx_HAL_Driver/Src/stm32f4xx_hal_rtc_ex.c ****   *
  17:Drivers/STM32F4xx_HAL_Driver/Src/stm32f4xx_hal_rtc_ex.c ****   * Copyright (c) 2017 STMicroelectronics.
  18:Drivers/STM32F4xx_HAL_Driver/Src/stm32f4xx_hal_rtc_ex.c ****   * All rights reserved.
  19:Drivers/STM32F4xx_HAL_Driver/Src/stm32f4xx_hal_rtc_ex.c ****   *
  20:Drivers/STM32F4xx_HAL_Driver/Src/stm32f4xx_hal_rtc_ex.c ****   * This software is licensed under terms that can be found in the LICENSE file
  21:Drivers/STM32F4xx_HAL_Driver/Src/stm32f4xx_hal_rtc_ex.c ****   * in the root directory of this software component.
  22:Drivers/STM32F4xx_HAL_Driver/Src/stm32f4xx_hal_rtc_ex.c ****   * If no LICENSE file comes with this software, it is provided AS-IS.
  23:Drivers/STM32F4xx_HAL_Driver/Src/stm32f4xx_hal_rtc_ex.c ****   *
  24:Drivers/STM32F4xx_HAL_Driver/Src/stm32f4xx_hal_rtc_ex.c ****   ******************************************************************************
  25:Drivers/STM32F4xx_HAL_Driver/Src/stm32f4xx_hal_rtc_ex.c ****   @verbatim
  26:Drivers/STM32F4xx_HAL_Driver/Src/stm32f4xx_hal_rtc_ex.c ****   ==============================================================================
  27:Drivers/STM32F4xx_HAL_Driver/Src/stm32f4xx_hal_rtc_ex.c ****                         ##### How to use this driver #####
  28:Drivers/STM32F4xx_HAL_Driver/Src/stm32f4xx_hal_rtc_ex.c ****   ==============================================================================
  29:Drivers/STM32F4xx_HAL_Driver/Src/stm32f4xx_hal_rtc_ex.c ****   [..]
ARM GAS  /tmp/ccTwdjOX.s 			page 2


  30:Drivers/STM32F4xx_HAL_Driver/Src/stm32f4xx_hal_rtc_ex.c ****     (+) Enable the RTC domain access.
  31:Drivers/STM32F4xx_HAL_Driver/Src/stm32f4xx_hal_rtc_ex.c ****     (+) Configure the RTC Prescaler (Asynchronous and Synchronous) and RTC hour
  32:Drivers/STM32F4xx_HAL_Driver/Src/stm32f4xx_hal_rtc_ex.c ****         format using the HAL_RTC_Init() function.
  33:Drivers/STM32F4xx_HAL_Driver/Src/stm32f4xx_hal_rtc_ex.c **** 
  34:Drivers/STM32F4xx_HAL_Driver/Src/stm32f4xx_hal_rtc_ex.c ****   *** RTC Wakeup configuration ***
  35:Drivers/STM32F4xx_HAL_Driver/Src/stm32f4xx_hal_rtc_ex.c ****   ================================
  36:Drivers/STM32F4xx_HAL_Driver/Src/stm32f4xx_hal_rtc_ex.c ****   [..]
  37:Drivers/STM32F4xx_HAL_Driver/Src/stm32f4xx_hal_rtc_ex.c ****     (+) To configure the RTC Wakeup Clock source and Counter use the
  38:Drivers/STM32F4xx_HAL_Driver/Src/stm32f4xx_hal_rtc_ex.c ****         HAL_RTCEx_SetWakeUpTimer() function.
  39:Drivers/STM32F4xx_HAL_Driver/Src/stm32f4xx_hal_rtc_ex.c ****         You can also configure the RTC Wakeup timer in interrupt mode using the
  40:Drivers/STM32F4xx_HAL_Driver/Src/stm32f4xx_hal_rtc_ex.c ****         HAL_RTCEx_SetWakeUpTimer_IT() function.
  41:Drivers/STM32F4xx_HAL_Driver/Src/stm32f4xx_hal_rtc_ex.c ****     (+) To read the RTC Wakeup Counter register, use the HAL_RTCEx_GetWakeUpTimer()
  42:Drivers/STM32F4xx_HAL_Driver/Src/stm32f4xx_hal_rtc_ex.c ****         function.
  43:Drivers/STM32F4xx_HAL_Driver/Src/stm32f4xx_hal_rtc_ex.c **** 
  44:Drivers/STM32F4xx_HAL_Driver/Src/stm32f4xx_hal_rtc_ex.c ****   *** Timestamp configuration ***
  45:Drivers/STM32F4xx_HAL_Driver/Src/stm32f4xx_hal_rtc_ex.c ****   ===============================
  46:Drivers/STM32F4xx_HAL_Driver/Src/stm32f4xx_hal_rtc_ex.c ****   [..]
  47:Drivers/STM32F4xx_HAL_Driver/Src/stm32f4xx_hal_rtc_ex.c ****     (+) To configure the RTC Timestamp use the HAL_RTCEx_SetTimeStamp() function.
  48:Drivers/STM32F4xx_HAL_Driver/Src/stm32f4xx_hal_rtc_ex.c ****         You can also configure the RTC Timestamp with interrupt mode using the
  49:Drivers/STM32F4xx_HAL_Driver/Src/stm32f4xx_hal_rtc_ex.c ****         HAL_RTCEx_SetTimeStamp_IT() function.
  50:Drivers/STM32F4xx_HAL_Driver/Src/stm32f4xx_hal_rtc_ex.c ****     (+) To read the RTC Timestamp Time and Date register, use the
  51:Drivers/STM32F4xx_HAL_Driver/Src/stm32f4xx_hal_rtc_ex.c ****         HAL_RTCEx_GetTimeStamp() function.
  52:Drivers/STM32F4xx_HAL_Driver/Src/stm32f4xx_hal_rtc_ex.c ****     (+) The Timestamp alternate function can be mapped either to RTC_AF1 (PC13)
  53:Drivers/STM32F4xx_HAL_Driver/Src/stm32f4xx_hal_rtc_ex.c ****         or RTC_AF2 (PI8) depending on the value of TSINSEL bit in RTC_TAFCR
  54:Drivers/STM32F4xx_HAL_Driver/Src/stm32f4xx_hal_rtc_ex.c ****         register.
  55:Drivers/STM32F4xx_HAL_Driver/Src/stm32f4xx_hal_rtc_ex.c ****         For STM32F446xx devices RTC_AF2 corresponds to pin PA0 and not to pin PI8.
  56:Drivers/STM32F4xx_HAL_Driver/Src/stm32f4xx_hal_rtc_ex.c ****         The corresponding pin is also selected by HAL_RTCEx_SetTimeStamp()
  57:Drivers/STM32F4xx_HAL_Driver/Src/stm32f4xx_hal_rtc_ex.c ****         or HAL_RTCEx_SetTimeStamp_IT() functions.
  58:Drivers/STM32F4xx_HAL_Driver/Src/stm32f4xx_hal_rtc_ex.c **** 
  59:Drivers/STM32F4xx_HAL_Driver/Src/stm32f4xx_hal_rtc_ex.c ****   *** Tamper configuration ***
  60:Drivers/STM32F4xx_HAL_Driver/Src/stm32f4xx_hal_rtc_ex.c ****   ============================
  61:Drivers/STM32F4xx_HAL_Driver/Src/stm32f4xx_hal_rtc_ex.c ****   [..]
  62:Drivers/STM32F4xx_HAL_Driver/Src/stm32f4xx_hal_rtc_ex.c ****     (+) To Enable the RTC Tamper and configure the Tamper filter count, trigger
  63:Drivers/STM32F4xx_HAL_Driver/Src/stm32f4xx_hal_rtc_ex.c ****         Edge or Level according to the Tamper filter value (if equal to 0 Edge
  64:Drivers/STM32F4xx_HAL_Driver/Src/stm32f4xx_hal_rtc_ex.c ****         else Level), sampling frequency, precharge or discharge and Pull-UP use
  65:Drivers/STM32F4xx_HAL_Driver/Src/stm32f4xx_hal_rtc_ex.c ****         the HAL_RTCEx_SetTamper() function.
  66:Drivers/STM32F4xx_HAL_Driver/Src/stm32f4xx_hal_rtc_ex.c ****         You can configure RTC Tamper in interrupt mode using HAL_RTCEx_SetTamper_IT()
  67:Drivers/STM32F4xx_HAL_Driver/Src/stm32f4xx_hal_rtc_ex.c ****         function.
  68:Drivers/STM32F4xx_HAL_Driver/Src/stm32f4xx_hal_rtc_ex.c ****     (+) The TAMPER1 alternate function can be mapped either to RTC_AF1 (PC13)
  69:Drivers/STM32F4xx_HAL_Driver/Src/stm32f4xx_hal_rtc_ex.c ****         or RTC_AF2 (PI8) depending on the value of TAMP1INSEL bit in RTC_TAFCR
  70:Drivers/STM32F4xx_HAL_Driver/Src/stm32f4xx_hal_rtc_ex.c ****         register.
  71:Drivers/STM32F4xx_HAL_Driver/Src/stm32f4xx_hal_rtc_ex.c ****         The corresponding pin is also selected by HAL_RTCEx_SetTamper()
  72:Drivers/STM32F4xx_HAL_Driver/Src/stm32f4xx_hal_rtc_ex.c ****         or HAL_RTCEx_SetTamper_IT() functions.
  73:Drivers/STM32F4xx_HAL_Driver/Src/stm32f4xx_hal_rtc_ex.c ****     (+) The TAMPER2 alternate function is mapped to RTC_AF2 (PI8).
  74:Drivers/STM32F4xx_HAL_Driver/Src/stm32f4xx_hal_rtc_ex.c ****         For STM32F446xx devices RTC_AF2 corresponds to pin PA0 and not to pin PI8.
  75:Drivers/STM32F4xx_HAL_Driver/Src/stm32f4xx_hal_rtc_ex.c **** 
  76:Drivers/STM32F4xx_HAL_Driver/Src/stm32f4xx_hal_rtc_ex.c ****   *** Backup Data Registers configuration ***
  77:Drivers/STM32F4xx_HAL_Driver/Src/stm32f4xx_hal_rtc_ex.c ****   ===========================================
  78:Drivers/STM32F4xx_HAL_Driver/Src/stm32f4xx_hal_rtc_ex.c ****   [..]
  79:Drivers/STM32F4xx_HAL_Driver/Src/stm32f4xx_hal_rtc_ex.c ****     (+) To write to the RTC Backup Data registers, use the HAL_RTCEx_BKUPWrite()
  80:Drivers/STM32F4xx_HAL_Driver/Src/stm32f4xx_hal_rtc_ex.c ****         function.
  81:Drivers/STM32F4xx_HAL_Driver/Src/stm32f4xx_hal_rtc_ex.c ****     (+) To read the RTC Backup Data registers, use the HAL_RTCEx_BKUPRead()
  82:Drivers/STM32F4xx_HAL_Driver/Src/stm32f4xx_hal_rtc_ex.c ****         function.
  83:Drivers/STM32F4xx_HAL_Driver/Src/stm32f4xx_hal_rtc_ex.c **** 
  84:Drivers/STM32F4xx_HAL_Driver/Src/stm32f4xx_hal_rtc_ex.c ****   *** Coarse Digital Calibration configuration ***
  85:Drivers/STM32F4xx_HAL_Driver/Src/stm32f4xx_hal_rtc_ex.c ****   ================================================
  86:Drivers/STM32F4xx_HAL_Driver/Src/stm32f4xx_hal_rtc_ex.c ****   [..]
ARM GAS  /tmp/ccTwdjOX.s 			page 3


  87:Drivers/STM32F4xx_HAL_Driver/Src/stm32f4xx_hal_rtc_ex.c ****     (+) The Coarse Digital Calibration can be used to compensate crystal inaccuracy
  88:Drivers/STM32F4xx_HAL_Driver/Src/stm32f4xx_hal_rtc_ex.c ****         by setting the DCS bit in RTC_CALIBR register.
  89:Drivers/STM32F4xx_HAL_Driver/Src/stm32f4xx_hal_rtc_ex.c ****     (+) When positive calibration is enabled (DCS = ‘0’), 2 asynchronous prescaler
  90:Drivers/STM32F4xx_HAL_Driver/Src/stm32f4xx_hal_rtc_ex.c ****         clock cycles are added every minute during 2xDC minutes.
  91:Drivers/STM32F4xx_HAL_Driver/Src/stm32f4xx_hal_rtc_ex.c ****         This causes the calendar to be updated sooner, thereby adjusting the
  92:Drivers/STM32F4xx_HAL_Driver/Src/stm32f4xx_hal_rtc_ex.c ****         effective RTC frequency to be a bit higher.
  93:Drivers/STM32F4xx_HAL_Driver/Src/stm32f4xx_hal_rtc_ex.c ****     (+) When negative calibration is enabled (DCS = ‘1’), 1 asynchronous prescaler
  94:Drivers/STM32F4xx_HAL_Driver/Src/stm32f4xx_hal_rtc_ex.c ****         clock cycle is removed every minute during 2xDC minutes.
  95:Drivers/STM32F4xx_HAL_Driver/Src/stm32f4xx_hal_rtc_ex.c ****         This causes the calendar to be updated later, thereby adjusting the
  96:Drivers/STM32F4xx_HAL_Driver/Src/stm32f4xx_hal_rtc_ex.c ****         effective RTC frequency to be a bit lower.
  97:Drivers/STM32F4xx_HAL_Driver/Src/stm32f4xx_hal_rtc_ex.c ****     (+) DC is configured through bits DC[4:0] of RTC_CALIBR register. This number
  98:Drivers/STM32F4xx_HAL_Driver/Src/stm32f4xx_hal_rtc_ex.c ****         ranges from 0 to 31 corresponding to a time interval (2xDC) ranging from
  99:Drivers/STM32F4xx_HAL_Driver/Src/stm32f4xx_hal_rtc_ex.c ****         0 to 62.
 100:Drivers/STM32F4xx_HAL_Driver/Src/stm32f4xx_hal_rtc_ex.c ****     (+) In order to measure the clock deviation, a 512 Hz clock is output for
 101:Drivers/STM32F4xx_HAL_Driver/Src/stm32f4xx_hal_rtc_ex.c ****         calibration.
 102:Drivers/STM32F4xx_HAL_Driver/Src/stm32f4xx_hal_rtc_ex.c ****     (+) The RTC Coarse Digital Calibration value and sign can be calibrated using
 103:Drivers/STM32F4xx_HAL_Driver/Src/stm32f4xx_hal_rtc_ex.c ****         the HAL_RTCEx_SetCoarseCalib() function.
 104:Drivers/STM32F4xx_HAL_Driver/Src/stm32f4xx_hal_rtc_ex.c **** 
 105:Drivers/STM32F4xx_HAL_Driver/Src/stm32f4xx_hal_rtc_ex.c ****   *** Smooth Digital Calibration configuration ***
 106:Drivers/STM32F4xx_HAL_Driver/Src/stm32f4xx_hal_rtc_ex.c ****   ================================================
 107:Drivers/STM32F4xx_HAL_Driver/Src/stm32f4xx_hal_rtc_ex.c ****   [..]
 108:Drivers/STM32F4xx_HAL_Driver/Src/stm32f4xx_hal_rtc_ex.c ****     (+) RTC frequency can be digitally calibrated with a resolution of about
 109:Drivers/STM32F4xx_HAL_Driver/Src/stm32f4xx_hal_rtc_ex.c ****         0.954 ppm with a range from -487.1 ppm to +488.5 ppm.
 110:Drivers/STM32F4xx_HAL_Driver/Src/stm32f4xx_hal_rtc_ex.c ****         The correction of the frequency is performed using a series of small
 111:Drivers/STM32F4xx_HAL_Driver/Src/stm32f4xx_hal_rtc_ex.c ****         adjustments (adding and/or subtracting individual RTCCLK pulses).
 112:Drivers/STM32F4xx_HAL_Driver/Src/stm32f4xx_hal_rtc_ex.c ****     (+) The smooth digital calibration is performed during a cycle of about 2^20
 113:Drivers/STM32F4xx_HAL_Driver/Src/stm32f4xx_hal_rtc_ex.c ****         RTCCLK pulses (or 32 seconds) when the input frequency is 32,768 Hz.
 114:Drivers/STM32F4xx_HAL_Driver/Src/stm32f4xx_hal_rtc_ex.c ****         This cycle is maintained by a 20-bit counter clocked by RTCCLK.
 115:Drivers/STM32F4xx_HAL_Driver/Src/stm32f4xx_hal_rtc_ex.c ****     (+) The smooth calibration register (RTC_CALR) specifies the number of RTCCLK
 116:Drivers/STM32F4xx_HAL_Driver/Src/stm32f4xx_hal_rtc_ex.c ****         clock cycles to be masked during the 32-second cycle.
 117:Drivers/STM32F4xx_HAL_Driver/Src/stm32f4xx_hal_rtc_ex.c ****     (+) The RTC Smooth Digital Calibration value and the corresponding calibration
 118:Drivers/STM32F4xx_HAL_Driver/Src/stm32f4xx_hal_rtc_ex.c ****         cycle period (32s, 16s, or 8s) can be calibrated using the
 119:Drivers/STM32F4xx_HAL_Driver/Src/stm32f4xx_hal_rtc_ex.c ****         HAL_RTCEx_SetSmoothCalib() function.
 120:Drivers/STM32F4xx_HAL_Driver/Src/stm32f4xx_hal_rtc_ex.c **** 
 121:Drivers/STM32F4xx_HAL_Driver/Src/stm32f4xx_hal_rtc_ex.c ****   @endverbatim
 122:Drivers/STM32F4xx_HAL_Driver/Src/stm32f4xx_hal_rtc_ex.c ****   ******************************************************************************
 123:Drivers/STM32F4xx_HAL_Driver/Src/stm32f4xx_hal_rtc_ex.c ****   */
 124:Drivers/STM32F4xx_HAL_Driver/Src/stm32f4xx_hal_rtc_ex.c **** 
 125:Drivers/STM32F4xx_HAL_Driver/Src/stm32f4xx_hal_rtc_ex.c **** /* Includes ------------------------------------------------------------------*/
 126:Drivers/STM32F4xx_HAL_Driver/Src/stm32f4xx_hal_rtc_ex.c **** #include "stm32f4xx_hal.h"
 127:Drivers/STM32F4xx_HAL_Driver/Src/stm32f4xx_hal_rtc_ex.c **** 
 128:Drivers/STM32F4xx_HAL_Driver/Src/stm32f4xx_hal_rtc_ex.c **** /** @addtogroup STM32F4xx_HAL_Driver
 129:Drivers/STM32F4xx_HAL_Driver/Src/stm32f4xx_hal_rtc_ex.c ****   * @{
 130:Drivers/STM32F4xx_HAL_Driver/Src/stm32f4xx_hal_rtc_ex.c ****   */
 131:Drivers/STM32F4xx_HAL_Driver/Src/stm32f4xx_hal_rtc_ex.c **** 
 132:Drivers/STM32F4xx_HAL_Driver/Src/stm32f4xx_hal_rtc_ex.c **** /** @defgroup RTCEx RTCEx
 133:Drivers/STM32F4xx_HAL_Driver/Src/stm32f4xx_hal_rtc_ex.c ****   * @brief    RTC Extended HAL module driver
 134:Drivers/STM32F4xx_HAL_Driver/Src/stm32f4xx_hal_rtc_ex.c ****   * @{
 135:Drivers/STM32F4xx_HAL_Driver/Src/stm32f4xx_hal_rtc_ex.c ****   */
 136:Drivers/STM32F4xx_HAL_Driver/Src/stm32f4xx_hal_rtc_ex.c **** 
 137:Drivers/STM32F4xx_HAL_Driver/Src/stm32f4xx_hal_rtc_ex.c **** #ifdef HAL_RTC_MODULE_ENABLED
 138:Drivers/STM32F4xx_HAL_Driver/Src/stm32f4xx_hal_rtc_ex.c **** 
 139:Drivers/STM32F4xx_HAL_Driver/Src/stm32f4xx_hal_rtc_ex.c **** /* Private typedef -----------------------------------------------------------*/
 140:Drivers/STM32F4xx_HAL_Driver/Src/stm32f4xx_hal_rtc_ex.c **** /* Private define ------------------------------------------------------------*/
 141:Drivers/STM32F4xx_HAL_Driver/Src/stm32f4xx_hal_rtc_ex.c **** /* Private macro -------------------------------------------------------------*/
 142:Drivers/STM32F4xx_HAL_Driver/Src/stm32f4xx_hal_rtc_ex.c **** /* Private variables ---------------------------------------------------------*/
 143:Drivers/STM32F4xx_HAL_Driver/Src/stm32f4xx_hal_rtc_ex.c **** /* Private function prototypes -----------------------------------------------*/
ARM GAS  /tmp/ccTwdjOX.s 			page 4


 144:Drivers/STM32F4xx_HAL_Driver/Src/stm32f4xx_hal_rtc_ex.c **** /* Exported functions --------------------------------------------------------*/
 145:Drivers/STM32F4xx_HAL_Driver/Src/stm32f4xx_hal_rtc_ex.c **** 
 146:Drivers/STM32F4xx_HAL_Driver/Src/stm32f4xx_hal_rtc_ex.c **** /** @defgroup RTCEx_Exported_Functions RTCEx Exported Functions
 147:Drivers/STM32F4xx_HAL_Driver/Src/stm32f4xx_hal_rtc_ex.c ****   * @{
 148:Drivers/STM32F4xx_HAL_Driver/Src/stm32f4xx_hal_rtc_ex.c ****   */
 149:Drivers/STM32F4xx_HAL_Driver/Src/stm32f4xx_hal_rtc_ex.c **** 
 150:Drivers/STM32F4xx_HAL_Driver/Src/stm32f4xx_hal_rtc_ex.c **** /** @defgroup RTCEx_Exported_Functions_Group1 RTC Timestamp and Tamper functions
 151:Drivers/STM32F4xx_HAL_Driver/Src/stm32f4xx_hal_rtc_ex.c ****   * @brief    RTC Timestamp and Tamper functions
 152:Drivers/STM32F4xx_HAL_Driver/Src/stm32f4xx_hal_rtc_ex.c ****   *
 153:Drivers/STM32F4xx_HAL_Driver/Src/stm32f4xx_hal_rtc_ex.c **** @verbatim
 154:Drivers/STM32F4xx_HAL_Driver/Src/stm32f4xx_hal_rtc_ex.c ****  ===============================================================================
 155:Drivers/STM32F4xx_HAL_Driver/Src/stm32f4xx_hal_rtc_ex.c ****                  ##### RTC Timestamp and Tamper functions #####
 156:Drivers/STM32F4xx_HAL_Driver/Src/stm32f4xx_hal_rtc_ex.c ****  ===============================================================================
 157:Drivers/STM32F4xx_HAL_Driver/Src/stm32f4xx_hal_rtc_ex.c **** 
 158:Drivers/STM32F4xx_HAL_Driver/Src/stm32f4xx_hal_rtc_ex.c ****  [..] This section provides functions allowing to configure Timestamp feature
 159:Drivers/STM32F4xx_HAL_Driver/Src/stm32f4xx_hal_rtc_ex.c **** 
 160:Drivers/STM32F4xx_HAL_Driver/Src/stm32f4xx_hal_rtc_ex.c **** @endverbatim
 161:Drivers/STM32F4xx_HAL_Driver/Src/stm32f4xx_hal_rtc_ex.c ****   * @{
 162:Drivers/STM32F4xx_HAL_Driver/Src/stm32f4xx_hal_rtc_ex.c ****   */
 163:Drivers/STM32F4xx_HAL_Driver/Src/stm32f4xx_hal_rtc_ex.c **** 
 164:Drivers/STM32F4xx_HAL_Driver/Src/stm32f4xx_hal_rtc_ex.c **** /**
 165:Drivers/STM32F4xx_HAL_Driver/Src/stm32f4xx_hal_rtc_ex.c ****   * @brief  Sets Timestamp.
 166:Drivers/STM32F4xx_HAL_Driver/Src/stm32f4xx_hal_rtc_ex.c ****   * @note   This API must be called before enabling the Timestamp feature.
 167:Drivers/STM32F4xx_HAL_Driver/Src/stm32f4xx_hal_rtc_ex.c ****   * @param  hrtc pointer to a RTC_HandleTypeDef structure that contains
 168:Drivers/STM32F4xx_HAL_Driver/Src/stm32f4xx_hal_rtc_ex.c ****   *                the configuration information for RTC.
 169:Drivers/STM32F4xx_HAL_Driver/Src/stm32f4xx_hal_rtc_ex.c ****   * @param  RTC_TimeStampEdge Specifies the pin edge on which the Timestamp is
 170:Drivers/STM32F4xx_HAL_Driver/Src/stm32f4xx_hal_rtc_ex.c ****   *         activated.
 171:Drivers/STM32F4xx_HAL_Driver/Src/stm32f4xx_hal_rtc_ex.c ****   *          This parameter can be one of the following values:
 172:Drivers/STM32F4xx_HAL_Driver/Src/stm32f4xx_hal_rtc_ex.c ****   *             @arg RTC_TIMESTAMPEDGE_RISING: the Timestamp event occurs on
 173:Drivers/STM32F4xx_HAL_Driver/Src/stm32f4xx_hal_rtc_ex.c ****   *                                        the rising edge of the related pin.
 174:Drivers/STM32F4xx_HAL_Driver/Src/stm32f4xx_hal_rtc_ex.c ****   *             @arg RTC_TIMESTAMPEDGE_FALLING: the Timestamp event occurs on
 175:Drivers/STM32F4xx_HAL_Driver/Src/stm32f4xx_hal_rtc_ex.c ****   *                                        the falling edge of the related pin.
 176:Drivers/STM32F4xx_HAL_Driver/Src/stm32f4xx_hal_rtc_ex.c ****   * @param  RTC_TimeStampPin Specifies the RTC Timestamp Pin.
 177:Drivers/STM32F4xx_HAL_Driver/Src/stm32f4xx_hal_rtc_ex.c ****   *          This parameter can be one of the following values:
 178:Drivers/STM32F4xx_HAL_Driver/Src/stm32f4xx_hal_rtc_ex.c ****   *             @arg RTC_TIMESTAMPPIN_DEFAULT: PC13 is selected as RTC Timestamp Pin.
 179:Drivers/STM32F4xx_HAL_Driver/Src/stm32f4xx_hal_rtc_ex.c ****   *             @arg RTC_TIMESTAMPPIN_POS1: PI8 is selected as RTC Timestamp Pin.
 180:Drivers/STM32F4xx_HAL_Driver/Src/stm32f4xx_hal_rtc_ex.c ****   * @note RTC_TIMESTAMPPIN_POS1 corresponds to pin PA0 in the case of
 181:Drivers/STM32F4xx_HAL_Driver/Src/stm32f4xx_hal_rtc_ex.c ****   *       STM32F446xx devices.
 182:Drivers/STM32F4xx_HAL_Driver/Src/stm32f4xx_hal_rtc_ex.c ****   * @note RTC_TIMESTAMPPIN_POS1 is not applicable to the following list of devices:
 183:Drivers/STM32F4xx_HAL_Driver/Src/stm32f4xx_hal_rtc_ex.c ****   *       STM32F412xx, STM32F413xx and STM32F423xx.
 184:Drivers/STM32F4xx_HAL_Driver/Src/stm32f4xx_hal_rtc_ex.c ****   * @retval HAL status
 185:Drivers/STM32F4xx_HAL_Driver/Src/stm32f4xx_hal_rtc_ex.c ****   */
 186:Drivers/STM32F4xx_HAL_Driver/Src/stm32f4xx_hal_rtc_ex.c **** HAL_StatusTypeDef HAL_RTCEx_SetTimeStamp(RTC_HandleTypeDef *hrtc, uint32_t RTC_TimeStampEdge, uint3
 187:Drivers/STM32F4xx_HAL_Driver/Src/stm32f4xx_hal_rtc_ex.c **** {
  30              		.loc 1 187 1 view -0
  31              		.cfi_startproc
  32              		@ args = 0, pretend = 0, frame = 0
  33              		@ frame_needed = 0, uses_anonymous_args = 0
  34              		@ link register save eliminated.
  35              		.loc 1 187 1 is_stmt 0 view .LVU1
  36 0000 F0B4     		push	{r4, r5, r6, r7}
  37              	.LCFI0:
  38              		.cfi_def_cfa_offset 16
  39              		.cfi_offset 4, -16
  40              		.cfi_offset 5, -12
  41              		.cfi_offset 6, -8
  42              		.cfi_offset 7, -4
ARM GAS  /tmp/ccTwdjOX.s 			page 5


 188:Drivers/STM32F4xx_HAL_Driver/Src/stm32f4xx_hal_rtc_ex.c ****   uint32_t tmpreg = 0U;
  43              		.loc 1 188 3 is_stmt 1 view .LVU2
  44              	.LVL1:
 189:Drivers/STM32F4xx_HAL_Driver/Src/stm32f4xx_hal_rtc_ex.c **** 
 190:Drivers/STM32F4xx_HAL_Driver/Src/stm32f4xx_hal_rtc_ex.c ****   /* Check the parameters */
 191:Drivers/STM32F4xx_HAL_Driver/Src/stm32f4xx_hal_rtc_ex.c ****   assert_param(IS_TIMESTAMP_EDGE(RTC_TimeStampEdge));
  45              		.loc 1 191 3 view .LVU3
 192:Drivers/STM32F4xx_HAL_Driver/Src/stm32f4xx_hal_rtc_ex.c ****   assert_param(IS_RTC_TIMESTAMP_PIN(RTC_TimeStampPin));
  46              		.loc 1 192 3 view .LVU4
 193:Drivers/STM32F4xx_HAL_Driver/Src/stm32f4xx_hal_rtc_ex.c **** 
 194:Drivers/STM32F4xx_HAL_Driver/Src/stm32f4xx_hal_rtc_ex.c ****   /* Process Locked */
 195:Drivers/STM32F4xx_HAL_Driver/Src/stm32f4xx_hal_rtc_ex.c ****   __HAL_LOCK(hrtc);
  47              		.loc 1 195 3 view .LVU5
  48              		.loc 1 195 3 view .LVU6
  49 0002 057F     		ldrb	r5, [r0, #28]	@ zero_extendqisi2
  50 0004 012D     		cmp	r5, #1
  51 0006 34D0     		beq	.L3
  52              		.loc 1 195 3 discriminator 2 view .LVU7
  53 0008 0125     		movs	r5, #1
  54 000a 0577     		strb	r5, [r0, #28]
 196:Drivers/STM32F4xx_HAL_Driver/Src/stm32f4xx_hal_rtc_ex.c **** 
 197:Drivers/STM32F4xx_HAL_Driver/Src/stm32f4xx_hal_rtc_ex.c ****   /* Change RTC state to BUSY */
 198:Drivers/STM32F4xx_HAL_Driver/Src/stm32f4xx_hal_rtc_ex.c ****   hrtc->State = HAL_RTC_STATE_BUSY;
  55              		.loc 1 198 3 discriminator 2 view .LVU8
  56              		.loc 1 198 15 is_stmt 0 discriminator 2 view .LVU9
  57 000c 0223     		movs	r3, #2
  58 000e 4377     		strb	r3, [r0, #29]
 199:Drivers/STM32F4xx_HAL_Driver/Src/stm32f4xx_hal_rtc_ex.c **** 
 200:Drivers/STM32F4xx_HAL_Driver/Src/stm32f4xx_hal_rtc_ex.c ****   hrtc->Instance->TAFCR &= (uint32_t)~RTC_TAFCR_TSINSEL;
  59              		.loc 1 200 3 is_stmt 1 discriminator 2 view .LVU10
  60              		.loc 1 200 7 is_stmt 0 discriminator 2 view .LVU11
  61 0010 0768     		ldr	r7, [r0]
  62              		.loc 1 200 25 discriminator 2 view .LVU12
  63 0012 3E6C     		ldr	r6, [r7, #64]
  64 0014 26F40036 		bic	r6, r6, #131072
  65 0018 3E64     		str	r6, [r7, #64]
 201:Drivers/STM32F4xx_HAL_Driver/Src/stm32f4xx_hal_rtc_ex.c ****   hrtc->Instance->TAFCR |= (uint32_t)(RTC_TimeStampPin);
  66              		.loc 1 201 3 is_stmt 1 discriminator 2 view .LVU13
  67              		.loc 1 201 7 is_stmt 0 discriminator 2 view .LVU14
  68 001a 0668     		ldr	r6, [r0]
  69              		.loc 1 201 25 discriminator 2 view .LVU15
  70 001c 346C     		ldr	r4, [r6, #64]
  71 001e 1443     		orrs	r4, r4, r2
  72 0020 3464     		str	r4, [r6, #64]
 202:Drivers/STM32F4xx_HAL_Driver/Src/stm32f4xx_hal_rtc_ex.c **** 
 203:Drivers/STM32F4xx_HAL_Driver/Src/stm32f4xx_hal_rtc_ex.c ****   /* Get the RTC_CR register and clear the bits to be configured */
 204:Drivers/STM32F4xx_HAL_Driver/Src/stm32f4xx_hal_rtc_ex.c ****   tmpreg = (uint32_t)(hrtc->Instance->CR & (uint32_t)~(RTC_CR_TSEDGE | RTC_CR_TSE));
  73              		.loc 1 204 3 is_stmt 1 discriminator 2 view .LVU16
  74              		.loc 1 204 27 is_stmt 0 discriminator 2 view .LVU17
  75 0022 0268     		ldr	r2, [r0]
  76              	.LVL2:
  77              		.loc 1 204 37 discriminator 2 view .LVU18
  78 0024 9368     		ldr	r3, [r2, #8]
  79              		.loc 1 204 10 discriminator 2 view .LVU19
  80 0026 23F40063 		bic	r3, r3, #2048
  81 002a 23F00803 		bic	r3, r3, #8
  82              	.LVL3:
ARM GAS  /tmp/ccTwdjOX.s 			page 6


 205:Drivers/STM32F4xx_HAL_Driver/Src/stm32f4xx_hal_rtc_ex.c **** 
 206:Drivers/STM32F4xx_HAL_Driver/Src/stm32f4xx_hal_rtc_ex.c ****   /* Configure the Timestamp TSEDGE bit */
 207:Drivers/STM32F4xx_HAL_Driver/Src/stm32f4xx_hal_rtc_ex.c ****   tmpreg |= RTC_TimeStampEdge;
  83              		.loc 1 207 3 is_stmt 1 discriminator 2 view .LVU20
  84              		.loc 1 207 10 is_stmt 0 discriminator 2 view .LVU21
  85 002e 0B43     		orrs	r3, r3, r1
  86              	.LVL4:
 208:Drivers/STM32F4xx_HAL_Driver/Src/stm32f4xx_hal_rtc_ex.c **** 
 209:Drivers/STM32F4xx_HAL_Driver/Src/stm32f4xx_hal_rtc_ex.c ****   /* Disable the write protection for RTC registers */
 210:Drivers/STM32F4xx_HAL_Driver/Src/stm32f4xx_hal_rtc_ex.c ****   __HAL_RTC_WRITEPROTECTION_DISABLE(hrtc);
  87              		.loc 1 210 3 is_stmt 1 discriminator 2 view .LVU22
  88              		.loc 1 210 3 discriminator 2 view .LVU23
  89 0030 CA21     		movs	r1, #202
  90              	.LVL5:
  91              		.loc 1 210 3 is_stmt 0 discriminator 2 view .LVU24
  92 0032 5162     		str	r1, [r2, #36]
  93              		.loc 1 210 3 is_stmt 1 discriminator 2 view .LVU25
  94 0034 0268     		ldr	r2, [r0]
  95 0036 5321     		movs	r1, #83
  96 0038 5162     		str	r1, [r2, #36]
 211:Drivers/STM32F4xx_HAL_Driver/Src/stm32f4xx_hal_rtc_ex.c **** 
 212:Drivers/STM32F4xx_HAL_Driver/Src/stm32f4xx_hal_rtc_ex.c ****   /* Copy the desired configuration into the CR register */
 213:Drivers/STM32F4xx_HAL_Driver/Src/stm32f4xx_hal_rtc_ex.c ****   hrtc->Instance->CR = (uint32_t)tmpreg;
  97              		.loc 1 213 3 discriminator 2 view .LVU26
  98              		.loc 1 213 7 is_stmt 0 discriminator 2 view .LVU27
  99 003a 0268     		ldr	r2, [r0]
 100              		.loc 1 213 22 discriminator 2 view .LVU28
 101 003c 9360     		str	r3, [r2, #8]
 214:Drivers/STM32F4xx_HAL_Driver/Src/stm32f4xx_hal_rtc_ex.c **** 
 215:Drivers/STM32F4xx_HAL_Driver/Src/stm32f4xx_hal_rtc_ex.c ****   /* Clear RTC Timestamp flag */
 216:Drivers/STM32F4xx_HAL_Driver/Src/stm32f4xx_hal_rtc_ex.c ****   __HAL_RTC_TIMESTAMP_CLEAR_FLAG(hrtc, RTC_FLAG_TSF);
 102              		.loc 1 216 3 is_stmt 1 discriminator 2 view .LVU29
 103 003e 0268     		ldr	r2, [r0]
 104 0040 D368     		ldr	r3, [r2, #12]
 105              	.LVL6:
 106              		.loc 1 216 3 is_stmt 0 discriminator 2 view .LVU30
 107 0042 DBB2     		uxtb	r3, r3
 108 0044 63F40863 		orn	r3, r3, #2176
 109 0048 D360     		str	r3, [r2, #12]
 217:Drivers/STM32F4xx_HAL_Driver/Src/stm32f4xx_hal_rtc_ex.c **** 
 218:Drivers/STM32F4xx_HAL_Driver/Src/stm32f4xx_hal_rtc_ex.c ****   /* Clear RTC Timestamp overrun Flag */
 219:Drivers/STM32F4xx_HAL_Driver/Src/stm32f4xx_hal_rtc_ex.c ****   __HAL_RTC_TIMESTAMP_CLEAR_FLAG(hrtc, RTC_FLAG_TSOVF);
 110              		.loc 1 219 3 is_stmt 1 discriminator 2 view .LVU31
 111 004a 0268     		ldr	r2, [r0]
 112 004c D368     		ldr	r3, [r2, #12]
 113 004e DBB2     		uxtb	r3, r3
 114 0050 63F48453 		orn	r3, r3, #4224
 115 0054 D360     		str	r3, [r2, #12]
 220:Drivers/STM32F4xx_HAL_Driver/Src/stm32f4xx_hal_rtc_ex.c **** 
 221:Drivers/STM32F4xx_HAL_Driver/Src/stm32f4xx_hal_rtc_ex.c ****   /* Enable the Timestamp saving */
 222:Drivers/STM32F4xx_HAL_Driver/Src/stm32f4xx_hal_rtc_ex.c ****   __HAL_RTC_TIMESTAMP_ENABLE(hrtc);
 116              		.loc 1 222 3 discriminator 2 view .LVU32
 117 0056 0268     		ldr	r2, [r0]
 118 0058 9368     		ldr	r3, [r2, #8]
 119 005a 43F40063 		orr	r3, r3, #2048
 120 005e 9360     		str	r3, [r2, #8]
 223:Drivers/STM32F4xx_HAL_Driver/Src/stm32f4xx_hal_rtc_ex.c **** 
ARM GAS  /tmp/ccTwdjOX.s 			page 7


 224:Drivers/STM32F4xx_HAL_Driver/Src/stm32f4xx_hal_rtc_ex.c ****   /* Enable the write protection for RTC registers */
 225:Drivers/STM32F4xx_HAL_Driver/Src/stm32f4xx_hal_rtc_ex.c ****   __HAL_RTC_WRITEPROTECTION_ENABLE(hrtc);
 121              		.loc 1 225 3 discriminator 2 view .LVU33
 122              		.loc 1 225 3 discriminator 2 view .LVU34
 123 0060 0368     		ldr	r3, [r0]
 124 0062 FF22     		movs	r2, #255
 125 0064 5A62     		str	r2, [r3, #36]
 226:Drivers/STM32F4xx_HAL_Driver/Src/stm32f4xx_hal_rtc_ex.c **** 
 227:Drivers/STM32F4xx_HAL_Driver/Src/stm32f4xx_hal_rtc_ex.c ****   /* Change RTC state back to READY */
 228:Drivers/STM32F4xx_HAL_Driver/Src/stm32f4xx_hal_rtc_ex.c ****   hrtc->State = HAL_RTC_STATE_READY;
 126              		.loc 1 228 3 discriminator 2 view .LVU35
 127              		.loc 1 228 15 is_stmt 0 discriminator 2 view .LVU36
 128 0066 4577     		strb	r5, [r0, #29]
 229:Drivers/STM32F4xx_HAL_Driver/Src/stm32f4xx_hal_rtc_ex.c **** 
 230:Drivers/STM32F4xx_HAL_Driver/Src/stm32f4xx_hal_rtc_ex.c ****   /* Process Unlocked */
 231:Drivers/STM32F4xx_HAL_Driver/Src/stm32f4xx_hal_rtc_ex.c ****   __HAL_UNLOCK(hrtc);
 129              		.loc 1 231 3 is_stmt 1 discriminator 2 view .LVU37
 130              		.loc 1 231 3 discriminator 2 view .LVU38
 131 0068 0023     		movs	r3, #0
 132 006a 0377     		strb	r3, [r0, #28]
 232:Drivers/STM32F4xx_HAL_Driver/Src/stm32f4xx_hal_rtc_ex.c **** 
 233:Drivers/STM32F4xx_HAL_Driver/Src/stm32f4xx_hal_rtc_ex.c ****   return HAL_OK;
 133              		.loc 1 233 3 discriminator 2 view .LVU39
 134              		.loc 1 233 10 is_stmt 0 discriminator 2 view .LVU40
 135 006c 1846     		mov	r0, r3
 136              	.LVL7:
 137              	.L2:
 234:Drivers/STM32F4xx_HAL_Driver/Src/stm32f4xx_hal_rtc_ex.c **** }
 138              		.loc 1 234 1 view .LVU41
 139 006e F0BC     		pop	{r4, r5, r6, r7}
 140              	.LCFI1:
 141              		.cfi_remember_state
 142              		.cfi_restore 7
 143              		.cfi_restore 6
 144              		.cfi_restore 5
 145              		.cfi_restore 4
 146              		.cfi_def_cfa_offset 0
 147 0070 7047     		bx	lr
 148              	.LVL8:
 149              	.L3:
 150              	.LCFI2:
 151              		.cfi_restore_state
 195:Drivers/STM32F4xx_HAL_Driver/Src/stm32f4xx_hal_rtc_ex.c **** 
 152              		.loc 1 195 3 view .LVU42
 153 0072 0220     		movs	r0, #2
 154              	.LVL9:
 195:Drivers/STM32F4xx_HAL_Driver/Src/stm32f4xx_hal_rtc_ex.c **** 
 155              		.loc 1 195 3 view .LVU43
 156 0074 FBE7     		b	.L2
 157              		.cfi_endproc
 158              	.LFE235:
 160              		.section	.text.HAL_RTCEx_SetTimeStamp_IT,"ax",%progbits
 161              		.align	1
 162              		.global	HAL_RTCEx_SetTimeStamp_IT
 163              		.syntax unified
 164              		.thumb
 165              		.thumb_func
ARM GAS  /tmp/ccTwdjOX.s 			page 8


 166              		.fpu fpv4-sp-d16
 168              	HAL_RTCEx_SetTimeStamp_IT:
 169              	.LVL10:
 170              	.LFB236:
 235:Drivers/STM32F4xx_HAL_Driver/Src/stm32f4xx_hal_rtc_ex.c **** 
 236:Drivers/STM32F4xx_HAL_Driver/Src/stm32f4xx_hal_rtc_ex.c **** /**
 237:Drivers/STM32F4xx_HAL_Driver/Src/stm32f4xx_hal_rtc_ex.c ****   * @brief  Sets Timestamp with Interrupt.
 238:Drivers/STM32F4xx_HAL_Driver/Src/stm32f4xx_hal_rtc_ex.c ****   * @param  hrtc pointer to a RTC_HandleTypeDef structure that contains
 239:Drivers/STM32F4xx_HAL_Driver/Src/stm32f4xx_hal_rtc_ex.c ****   *                the configuration information for RTC.
 240:Drivers/STM32F4xx_HAL_Driver/Src/stm32f4xx_hal_rtc_ex.c ****   * @note   This API must be called before enabling the Timestamp feature.
 241:Drivers/STM32F4xx_HAL_Driver/Src/stm32f4xx_hal_rtc_ex.c ****   * @param  RTC_TimeStampEdge Specifies the pin edge on which the Timestamp is
 242:Drivers/STM32F4xx_HAL_Driver/Src/stm32f4xx_hal_rtc_ex.c ****   *         activated.
 243:Drivers/STM32F4xx_HAL_Driver/Src/stm32f4xx_hal_rtc_ex.c ****   *          This parameter can be one of the following values:
 244:Drivers/STM32F4xx_HAL_Driver/Src/stm32f4xx_hal_rtc_ex.c ****   *             @arg RTC_TIMESTAMPEDGE_RISING: the Timestamp event occurs on
 245:Drivers/STM32F4xx_HAL_Driver/Src/stm32f4xx_hal_rtc_ex.c ****   *                                        the rising edge of the related pin.
 246:Drivers/STM32F4xx_HAL_Driver/Src/stm32f4xx_hal_rtc_ex.c ****   *             @arg RTC_TIMESTAMPEDGE_FALLING: the Timestamp event occurs on
 247:Drivers/STM32F4xx_HAL_Driver/Src/stm32f4xx_hal_rtc_ex.c ****   *                                        the falling edge of the related pin.
 248:Drivers/STM32F4xx_HAL_Driver/Src/stm32f4xx_hal_rtc_ex.c ****   * @param  RTC_TimeStampPin Specifies the RTC Timestamp Pin.
 249:Drivers/STM32F4xx_HAL_Driver/Src/stm32f4xx_hal_rtc_ex.c ****   *          This parameter can be one of the following values:
 250:Drivers/STM32F4xx_HAL_Driver/Src/stm32f4xx_hal_rtc_ex.c ****   *             @arg RTC_TIMESTAMPPIN_DEFAULT: PC13 is selected as RTC Timestamp Pin.
 251:Drivers/STM32F4xx_HAL_Driver/Src/stm32f4xx_hal_rtc_ex.c ****   *             @arg RTC_TIMESTAMPPIN_POS1: PI8 is selected as RTC Timestamp Pin.
 252:Drivers/STM32F4xx_HAL_Driver/Src/stm32f4xx_hal_rtc_ex.c ****   * @note RTC_TIMESTAMPPIN_POS1 corresponds to pin PA0 in the case of
 253:Drivers/STM32F4xx_HAL_Driver/Src/stm32f4xx_hal_rtc_ex.c ****   *       STM32F446xx devices.
 254:Drivers/STM32F4xx_HAL_Driver/Src/stm32f4xx_hal_rtc_ex.c ****   * @note RTC_TIMESTAMPPIN_POS1 is not applicable to the following list of devices:
 255:Drivers/STM32F4xx_HAL_Driver/Src/stm32f4xx_hal_rtc_ex.c ****   *       STM32F412xx, STM32F413xx and STM32F423xx.
 256:Drivers/STM32F4xx_HAL_Driver/Src/stm32f4xx_hal_rtc_ex.c ****   * @retval HAL status
 257:Drivers/STM32F4xx_HAL_Driver/Src/stm32f4xx_hal_rtc_ex.c ****   */
 258:Drivers/STM32F4xx_HAL_Driver/Src/stm32f4xx_hal_rtc_ex.c **** HAL_StatusTypeDef HAL_RTCEx_SetTimeStamp_IT(RTC_HandleTypeDef *hrtc, uint32_t RTC_TimeStampEdge, ui
 259:Drivers/STM32F4xx_HAL_Driver/Src/stm32f4xx_hal_rtc_ex.c **** {
 171              		.loc 1 259 1 is_stmt 1 view -0
 172              		.cfi_startproc
 173              		@ args = 0, pretend = 0, frame = 0
 174              		@ frame_needed = 0, uses_anonymous_args = 0
 175              		@ link register save eliminated.
 176              		.loc 1 259 1 is_stmt 0 view .LVU45
 177 0000 F0B4     		push	{r4, r5, r6, r7}
 178              	.LCFI3:
 179              		.cfi_def_cfa_offset 16
 180              		.cfi_offset 4, -16
 181              		.cfi_offset 5, -12
 182              		.cfi_offset 6, -8
 183              		.cfi_offset 7, -4
 260:Drivers/STM32F4xx_HAL_Driver/Src/stm32f4xx_hal_rtc_ex.c ****   uint32_t tmpreg = 0U;
 184              		.loc 1 260 3 is_stmt 1 view .LVU46
 185              	.LVL11:
 261:Drivers/STM32F4xx_HAL_Driver/Src/stm32f4xx_hal_rtc_ex.c **** 
 262:Drivers/STM32F4xx_HAL_Driver/Src/stm32f4xx_hal_rtc_ex.c ****   /* Check the parameters */
 263:Drivers/STM32F4xx_HAL_Driver/Src/stm32f4xx_hal_rtc_ex.c ****   assert_param(IS_TIMESTAMP_EDGE(RTC_TimeStampEdge));
 186              		.loc 1 263 3 view .LVU47
 264:Drivers/STM32F4xx_HAL_Driver/Src/stm32f4xx_hal_rtc_ex.c ****   assert_param(IS_RTC_TIMESTAMP_PIN(RTC_TimeStampPin));
 187              		.loc 1 264 3 view .LVU48
 265:Drivers/STM32F4xx_HAL_Driver/Src/stm32f4xx_hal_rtc_ex.c **** 
 266:Drivers/STM32F4xx_HAL_Driver/Src/stm32f4xx_hal_rtc_ex.c ****   /* Process Locked */
 267:Drivers/STM32F4xx_HAL_Driver/Src/stm32f4xx_hal_rtc_ex.c ****   __HAL_LOCK(hrtc);
 188              		.loc 1 267 3 view .LVU49
 189              		.loc 1 267 3 view .LVU50
 190 0002 047F     		ldrb	r4, [r0, #28]	@ zero_extendqisi2
ARM GAS  /tmp/ccTwdjOX.s 			page 9


 191 0004 012C     		cmp	r4, #1
 192 0006 42D0     		beq	.L7
 193              		.loc 1 267 3 discriminator 2 view .LVU51
 194 0008 0124     		movs	r4, #1
 195 000a 0477     		strb	r4, [r0, #28]
 268:Drivers/STM32F4xx_HAL_Driver/Src/stm32f4xx_hal_rtc_ex.c **** 
 269:Drivers/STM32F4xx_HAL_Driver/Src/stm32f4xx_hal_rtc_ex.c ****   /* Change RTC state to BUSY */
 270:Drivers/STM32F4xx_HAL_Driver/Src/stm32f4xx_hal_rtc_ex.c ****   hrtc->State = HAL_RTC_STATE_BUSY;
 196              		.loc 1 270 3 discriminator 2 view .LVU52
 197              		.loc 1 270 15 is_stmt 0 discriminator 2 view .LVU53
 198 000c 0223     		movs	r3, #2
 199 000e 4377     		strb	r3, [r0, #29]
 271:Drivers/STM32F4xx_HAL_Driver/Src/stm32f4xx_hal_rtc_ex.c **** 
 272:Drivers/STM32F4xx_HAL_Driver/Src/stm32f4xx_hal_rtc_ex.c ****   hrtc->Instance->TAFCR &= (uint32_t)~RTC_TAFCR_TSINSEL;
 200              		.loc 1 272 3 is_stmt 1 discriminator 2 view .LVU54
 201              		.loc 1 272 7 is_stmt 0 discriminator 2 view .LVU55
 202 0010 0768     		ldr	r7, [r0]
 203              		.loc 1 272 25 discriminator 2 view .LVU56
 204 0012 3E6C     		ldr	r6, [r7, #64]
 205 0014 26F40036 		bic	r6, r6, #131072
 206 0018 3E64     		str	r6, [r7, #64]
 273:Drivers/STM32F4xx_HAL_Driver/Src/stm32f4xx_hal_rtc_ex.c ****   hrtc->Instance->TAFCR |= (uint32_t)(RTC_TimeStampPin);
 207              		.loc 1 273 3 is_stmt 1 discriminator 2 view .LVU57
 208              		.loc 1 273 7 is_stmt 0 discriminator 2 view .LVU58
 209 001a 0668     		ldr	r6, [r0]
 210              		.loc 1 273 25 discriminator 2 view .LVU59
 211 001c 356C     		ldr	r5, [r6, #64]
 212 001e 1543     		orrs	r5, r5, r2
 213 0020 3564     		str	r5, [r6, #64]
 274:Drivers/STM32F4xx_HAL_Driver/Src/stm32f4xx_hal_rtc_ex.c **** 
 275:Drivers/STM32F4xx_HAL_Driver/Src/stm32f4xx_hal_rtc_ex.c ****   /* Get the RTC_CR register and clear the bits to be configured */
 276:Drivers/STM32F4xx_HAL_Driver/Src/stm32f4xx_hal_rtc_ex.c ****   tmpreg = (uint32_t)(hrtc->Instance->CR & (uint32_t)~(RTC_CR_TSEDGE | RTC_CR_TSE));
 214              		.loc 1 276 3 is_stmt 1 discriminator 2 view .LVU60
 215              		.loc 1 276 27 is_stmt 0 discriminator 2 view .LVU61
 216 0022 0268     		ldr	r2, [r0]
 217              	.LVL12:
 218              		.loc 1 276 37 discriminator 2 view .LVU62
 219 0024 9368     		ldr	r3, [r2, #8]
 220              		.loc 1 276 10 discriminator 2 view .LVU63
 221 0026 23F40063 		bic	r3, r3, #2048
 222 002a 23F00803 		bic	r3, r3, #8
 223              	.LVL13:
 277:Drivers/STM32F4xx_HAL_Driver/Src/stm32f4xx_hal_rtc_ex.c **** 
 278:Drivers/STM32F4xx_HAL_Driver/Src/stm32f4xx_hal_rtc_ex.c ****   /* Configure the Timestamp TSEDGE bit */
 279:Drivers/STM32F4xx_HAL_Driver/Src/stm32f4xx_hal_rtc_ex.c ****   tmpreg |= RTC_TimeStampEdge;
 224              		.loc 1 279 3 is_stmt 1 discriminator 2 view .LVU64
 225              		.loc 1 279 10 is_stmt 0 discriminator 2 view .LVU65
 226 002e 0B43     		orrs	r3, r3, r1
 227              	.LVL14:
 280:Drivers/STM32F4xx_HAL_Driver/Src/stm32f4xx_hal_rtc_ex.c **** 
 281:Drivers/STM32F4xx_HAL_Driver/Src/stm32f4xx_hal_rtc_ex.c ****   /* Disable the write protection for RTC registers */
 282:Drivers/STM32F4xx_HAL_Driver/Src/stm32f4xx_hal_rtc_ex.c ****   __HAL_RTC_WRITEPROTECTION_DISABLE(hrtc);
 228              		.loc 1 282 3 is_stmt 1 discriminator 2 view .LVU66
 229              		.loc 1 282 3 discriminator 2 view .LVU67
 230 0030 CA21     		movs	r1, #202
 231              	.LVL15:
 232              		.loc 1 282 3 is_stmt 0 discriminator 2 view .LVU68
ARM GAS  /tmp/ccTwdjOX.s 			page 10


 233 0032 5162     		str	r1, [r2, #36]
 234              		.loc 1 282 3 is_stmt 1 discriminator 2 view .LVU69
 235 0034 0268     		ldr	r2, [r0]
 236 0036 5321     		movs	r1, #83
 237 0038 5162     		str	r1, [r2, #36]
 283:Drivers/STM32F4xx_HAL_Driver/Src/stm32f4xx_hal_rtc_ex.c **** 
 284:Drivers/STM32F4xx_HAL_Driver/Src/stm32f4xx_hal_rtc_ex.c ****   /* Copy the desired configuration into the CR register */
 285:Drivers/STM32F4xx_HAL_Driver/Src/stm32f4xx_hal_rtc_ex.c ****   hrtc->Instance->CR = (uint32_t)tmpreg;
 238              		.loc 1 285 3 discriminator 2 view .LVU70
 239              		.loc 1 285 7 is_stmt 0 discriminator 2 view .LVU71
 240 003a 0268     		ldr	r2, [r0]
 241              		.loc 1 285 22 discriminator 2 view .LVU72
 242 003c 9360     		str	r3, [r2, #8]
 286:Drivers/STM32F4xx_HAL_Driver/Src/stm32f4xx_hal_rtc_ex.c **** 
 287:Drivers/STM32F4xx_HAL_Driver/Src/stm32f4xx_hal_rtc_ex.c ****   /* Clear RTC Timestamp flag */
 288:Drivers/STM32F4xx_HAL_Driver/Src/stm32f4xx_hal_rtc_ex.c ****   __HAL_RTC_TIMESTAMP_CLEAR_FLAG(hrtc, RTC_FLAG_TSF);
 243              		.loc 1 288 3 is_stmt 1 discriminator 2 view .LVU73
 244 003e 0268     		ldr	r2, [r0]
 245 0040 D368     		ldr	r3, [r2, #12]
 246              	.LVL16:
 247              		.loc 1 288 3 is_stmt 0 discriminator 2 view .LVU74
 248 0042 DBB2     		uxtb	r3, r3
 249 0044 63F40863 		orn	r3, r3, #2176
 250 0048 D360     		str	r3, [r2, #12]
 289:Drivers/STM32F4xx_HAL_Driver/Src/stm32f4xx_hal_rtc_ex.c **** 
 290:Drivers/STM32F4xx_HAL_Driver/Src/stm32f4xx_hal_rtc_ex.c ****   /* Clear RTC Timestamp overrun Flag */
 291:Drivers/STM32F4xx_HAL_Driver/Src/stm32f4xx_hal_rtc_ex.c ****   __HAL_RTC_TIMESTAMP_CLEAR_FLAG(hrtc, RTC_FLAG_TSOVF);
 251              		.loc 1 291 3 is_stmt 1 discriminator 2 view .LVU75
 252 004a 0268     		ldr	r2, [r0]
 253 004c D368     		ldr	r3, [r2, #12]
 254 004e DBB2     		uxtb	r3, r3
 255 0050 63F48453 		orn	r3, r3, #4224
 256 0054 D360     		str	r3, [r2, #12]
 292:Drivers/STM32F4xx_HAL_Driver/Src/stm32f4xx_hal_rtc_ex.c **** 
 293:Drivers/STM32F4xx_HAL_Driver/Src/stm32f4xx_hal_rtc_ex.c ****   /* Enable the Timestamp saving */
 294:Drivers/STM32F4xx_HAL_Driver/Src/stm32f4xx_hal_rtc_ex.c ****   __HAL_RTC_TIMESTAMP_ENABLE(hrtc);
 257              		.loc 1 294 3 discriminator 2 view .LVU76
 258 0056 0268     		ldr	r2, [r0]
 259 0058 9368     		ldr	r3, [r2, #8]
 260 005a 43F40063 		orr	r3, r3, #2048
 261 005e 9360     		str	r3, [r2, #8]
 295:Drivers/STM32F4xx_HAL_Driver/Src/stm32f4xx_hal_rtc_ex.c **** 
 296:Drivers/STM32F4xx_HAL_Driver/Src/stm32f4xx_hal_rtc_ex.c ****   /* Enable IT Timestamp */
 297:Drivers/STM32F4xx_HAL_Driver/Src/stm32f4xx_hal_rtc_ex.c ****   __HAL_RTC_TIMESTAMP_ENABLE_IT(hrtc, RTC_IT_TS);
 262              		.loc 1 297 3 discriminator 2 view .LVU77
 263 0060 0268     		ldr	r2, [r0]
 264 0062 9368     		ldr	r3, [r2, #8]
 265 0064 43F40043 		orr	r3, r3, #32768
 266 0068 9360     		str	r3, [r2, #8]
 298:Drivers/STM32F4xx_HAL_Driver/Src/stm32f4xx_hal_rtc_ex.c **** 
 299:Drivers/STM32F4xx_HAL_Driver/Src/stm32f4xx_hal_rtc_ex.c ****   /* Enable the write protection for RTC registers */
 300:Drivers/STM32F4xx_HAL_Driver/Src/stm32f4xx_hal_rtc_ex.c ****   __HAL_RTC_WRITEPROTECTION_ENABLE(hrtc);
 267              		.loc 1 300 3 discriminator 2 view .LVU78
 268              		.loc 1 300 3 discriminator 2 view .LVU79
 269 006a 0368     		ldr	r3, [r0]
 270 006c FF22     		movs	r2, #255
 271 006e 5A62     		str	r2, [r3, #36]
ARM GAS  /tmp/ccTwdjOX.s 			page 11


 301:Drivers/STM32F4xx_HAL_Driver/Src/stm32f4xx_hal_rtc_ex.c **** 
 302:Drivers/STM32F4xx_HAL_Driver/Src/stm32f4xx_hal_rtc_ex.c ****   /* RTC Timestamp Interrupt Configuration: EXTI configuration */
 303:Drivers/STM32F4xx_HAL_Driver/Src/stm32f4xx_hal_rtc_ex.c ****   __HAL_RTC_TAMPER_TIMESTAMP_EXTI_ENABLE_IT();
 272              		.loc 1 303 3 discriminator 2 view .LVU80
 273 0070 084B     		ldr	r3, .L9
 274 0072 1A68     		ldr	r2, [r3]
 275 0074 42F40012 		orr	r2, r2, #2097152
 276 0078 1A60     		str	r2, [r3]
 304:Drivers/STM32F4xx_HAL_Driver/Src/stm32f4xx_hal_rtc_ex.c ****   __HAL_RTC_TAMPER_TIMESTAMP_EXTI_ENABLE_RISING_EDGE();
 277              		.loc 1 304 3 discriminator 2 view .LVU81
 278 007a 9A68     		ldr	r2, [r3, #8]
 279 007c 42F40012 		orr	r2, r2, #2097152
 280 0080 9A60     		str	r2, [r3, #8]
 305:Drivers/STM32F4xx_HAL_Driver/Src/stm32f4xx_hal_rtc_ex.c **** 
 306:Drivers/STM32F4xx_HAL_Driver/Src/stm32f4xx_hal_rtc_ex.c ****   /* Change RTC state back to READY */
 307:Drivers/STM32F4xx_HAL_Driver/Src/stm32f4xx_hal_rtc_ex.c ****   hrtc->State = HAL_RTC_STATE_READY;
 281              		.loc 1 307 3 discriminator 2 view .LVU82
 282              		.loc 1 307 15 is_stmt 0 discriminator 2 view .LVU83
 283 0082 4477     		strb	r4, [r0, #29]
 308:Drivers/STM32F4xx_HAL_Driver/Src/stm32f4xx_hal_rtc_ex.c **** 
 309:Drivers/STM32F4xx_HAL_Driver/Src/stm32f4xx_hal_rtc_ex.c ****   /* Process Unlocked */
 310:Drivers/STM32F4xx_HAL_Driver/Src/stm32f4xx_hal_rtc_ex.c ****   __HAL_UNLOCK(hrtc);
 284              		.loc 1 310 3 is_stmt 1 discriminator 2 view .LVU84
 285              		.loc 1 310 3 discriminator 2 view .LVU85
 286 0084 0023     		movs	r3, #0
 287 0086 0377     		strb	r3, [r0, #28]
 311:Drivers/STM32F4xx_HAL_Driver/Src/stm32f4xx_hal_rtc_ex.c **** 
 312:Drivers/STM32F4xx_HAL_Driver/Src/stm32f4xx_hal_rtc_ex.c ****   return HAL_OK;
 288              		.loc 1 312 3 discriminator 2 view .LVU86
 289              		.loc 1 312 10 is_stmt 0 discriminator 2 view .LVU87
 290 0088 1846     		mov	r0, r3
 291              	.LVL17:
 292              	.L6:
 313:Drivers/STM32F4xx_HAL_Driver/Src/stm32f4xx_hal_rtc_ex.c **** }
 293              		.loc 1 313 1 view .LVU88
 294 008a F0BC     		pop	{r4, r5, r6, r7}
 295              	.LCFI4:
 296              		.cfi_remember_state
 297              		.cfi_restore 7
 298              		.cfi_restore 6
 299              		.cfi_restore 5
 300              		.cfi_restore 4
 301              		.cfi_def_cfa_offset 0
 302 008c 7047     		bx	lr
 303              	.LVL18:
 304              	.L7:
 305              	.LCFI5:
 306              		.cfi_restore_state
 267:Drivers/STM32F4xx_HAL_Driver/Src/stm32f4xx_hal_rtc_ex.c **** 
 307              		.loc 1 267 3 view .LVU89
 308 008e 0220     		movs	r0, #2
 309              	.LVL19:
 267:Drivers/STM32F4xx_HAL_Driver/Src/stm32f4xx_hal_rtc_ex.c **** 
 310              		.loc 1 267 3 view .LVU90
 311 0090 FBE7     		b	.L6
 312              	.L10:
 313 0092 00BF     		.align	2
ARM GAS  /tmp/ccTwdjOX.s 			page 12


 314              	.L9:
 315 0094 003C0140 		.word	1073822720
 316              		.cfi_endproc
 317              	.LFE236:
 319              		.section	.text.HAL_RTCEx_DeactivateTimeStamp,"ax",%progbits
 320              		.align	1
 321              		.global	HAL_RTCEx_DeactivateTimeStamp
 322              		.syntax unified
 323              		.thumb
 324              		.thumb_func
 325              		.fpu fpv4-sp-d16
 327              	HAL_RTCEx_DeactivateTimeStamp:
 328              	.LVL20:
 329              	.LFB237:
 314:Drivers/STM32F4xx_HAL_Driver/Src/stm32f4xx_hal_rtc_ex.c **** 
 315:Drivers/STM32F4xx_HAL_Driver/Src/stm32f4xx_hal_rtc_ex.c **** /**
 316:Drivers/STM32F4xx_HAL_Driver/Src/stm32f4xx_hal_rtc_ex.c ****   * @brief  Deactivates Timestamp.
 317:Drivers/STM32F4xx_HAL_Driver/Src/stm32f4xx_hal_rtc_ex.c ****   * @param  hrtc pointer to a RTC_HandleTypeDef structure that contains
 318:Drivers/STM32F4xx_HAL_Driver/Src/stm32f4xx_hal_rtc_ex.c ****   *                the configuration information for RTC.
 319:Drivers/STM32F4xx_HAL_Driver/Src/stm32f4xx_hal_rtc_ex.c ****   * @retval HAL status
 320:Drivers/STM32F4xx_HAL_Driver/Src/stm32f4xx_hal_rtc_ex.c ****   */
 321:Drivers/STM32F4xx_HAL_Driver/Src/stm32f4xx_hal_rtc_ex.c **** HAL_StatusTypeDef HAL_RTCEx_DeactivateTimeStamp(RTC_HandleTypeDef *hrtc)
 322:Drivers/STM32F4xx_HAL_Driver/Src/stm32f4xx_hal_rtc_ex.c **** {
 330              		.loc 1 322 1 is_stmt 1 view -0
 331              		.cfi_startproc
 332              		@ args = 0, pretend = 0, frame = 0
 333              		@ frame_needed = 0, uses_anonymous_args = 0
 334              		@ link register save eliminated.
 323:Drivers/STM32F4xx_HAL_Driver/Src/stm32f4xx_hal_rtc_ex.c ****   uint32_t tmpreg = 0U;
 335              		.loc 1 323 3 view .LVU92
 324:Drivers/STM32F4xx_HAL_Driver/Src/stm32f4xx_hal_rtc_ex.c **** 
 325:Drivers/STM32F4xx_HAL_Driver/Src/stm32f4xx_hal_rtc_ex.c ****   /* Process Locked */
 326:Drivers/STM32F4xx_HAL_Driver/Src/stm32f4xx_hal_rtc_ex.c ****   __HAL_LOCK(hrtc);
 336              		.loc 1 326 3 view .LVU93
 337              		.loc 1 326 3 view .LVU94
 338 0000 037F     		ldrb	r3, [r0, #28]	@ zero_extendqisi2
 339 0002 012B     		cmp	r3, #1
 340 0004 1DD0     		beq	.L13
 341              		.loc 1 326 3 discriminator 2 view .LVU95
 342 0006 0122     		movs	r2, #1
 343 0008 0277     		strb	r2, [r0, #28]
 327:Drivers/STM32F4xx_HAL_Driver/Src/stm32f4xx_hal_rtc_ex.c **** 
 328:Drivers/STM32F4xx_HAL_Driver/Src/stm32f4xx_hal_rtc_ex.c ****   hrtc->State = HAL_RTC_STATE_BUSY;
 344              		.loc 1 328 3 discriminator 2 view .LVU96
 345              		.loc 1 328 15 is_stmt 0 discriminator 2 view .LVU97
 346 000a 0223     		movs	r3, #2
 347 000c 4377     		strb	r3, [r0, #29]
 329:Drivers/STM32F4xx_HAL_Driver/Src/stm32f4xx_hal_rtc_ex.c **** 
 330:Drivers/STM32F4xx_HAL_Driver/Src/stm32f4xx_hal_rtc_ex.c ****   /* Disable the write protection for RTC registers */
 331:Drivers/STM32F4xx_HAL_Driver/Src/stm32f4xx_hal_rtc_ex.c ****   __HAL_RTC_WRITEPROTECTION_DISABLE(hrtc);
 348              		.loc 1 331 3 is_stmt 1 discriminator 2 view .LVU98
 349              		.loc 1 331 3 discriminator 2 view .LVU99
 350 000e 0368     		ldr	r3, [r0]
 351 0010 CA21     		movs	r1, #202
 352 0012 5962     		str	r1, [r3, #36]
 353              		.loc 1 331 3 discriminator 2 view .LVU100
 354 0014 0368     		ldr	r3, [r0]
ARM GAS  /tmp/ccTwdjOX.s 			page 13


 355 0016 5321     		movs	r1, #83
 356 0018 5962     		str	r1, [r3, #36]
 332:Drivers/STM32F4xx_HAL_Driver/Src/stm32f4xx_hal_rtc_ex.c **** 
 333:Drivers/STM32F4xx_HAL_Driver/Src/stm32f4xx_hal_rtc_ex.c ****   /* In case of interrupt mode is used, the interrupt source must disabled */
 334:Drivers/STM32F4xx_HAL_Driver/Src/stm32f4xx_hal_rtc_ex.c ****   __HAL_RTC_TIMESTAMP_DISABLE_IT(hrtc, RTC_IT_TS);
 357              		.loc 1 334 3 discriminator 2 view .LVU101
 358 001a 0168     		ldr	r1, [r0]
 359 001c 8B68     		ldr	r3, [r1, #8]
 360 001e 23F40043 		bic	r3, r3, #32768
 361 0022 8B60     		str	r3, [r1, #8]
 335:Drivers/STM32F4xx_HAL_Driver/Src/stm32f4xx_hal_rtc_ex.c **** 
 336:Drivers/STM32F4xx_HAL_Driver/Src/stm32f4xx_hal_rtc_ex.c ****   /* Get the RTC_CR register and clear the bits to be configured */
 337:Drivers/STM32F4xx_HAL_Driver/Src/stm32f4xx_hal_rtc_ex.c ****   tmpreg = (uint32_t)(hrtc->Instance->CR & (uint32_t)~(RTC_CR_TSEDGE | RTC_CR_TSE));
 362              		.loc 1 337 3 discriminator 2 view .LVU102
 363              		.loc 1 337 27 is_stmt 0 discriminator 2 view .LVU103
 364 0024 0168     		ldr	r1, [r0]
 365              		.loc 1 337 37 discriminator 2 view .LVU104
 366 0026 8B68     		ldr	r3, [r1, #8]
 367              		.loc 1 337 10 discriminator 2 view .LVU105
 368 0028 23F40063 		bic	r3, r3, #2048
 369 002c 23F00803 		bic	r3, r3, #8
 370              	.LVL21:
 338:Drivers/STM32F4xx_HAL_Driver/Src/stm32f4xx_hal_rtc_ex.c **** 
 339:Drivers/STM32F4xx_HAL_Driver/Src/stm32f4xx_hal_rtc_ex.c ****   /* Configure the Timestamp TSEDGE and Enable bits */
 340:Drivers/STM32F4xx_HAL_Driver/Src/stm32f4xx_hal_rtc_ex.c ****   hrtc->Instance->CR = (uint32_t)tmpreg;
 371              		.loc 1 340 3 is_stmt 1 discriminator 2 view .LVU106
 372              		.loc 1 340 22 is_stmt 0 discriminator 2 view .LVU107
 373 0030 8B60     		str	r3, [r1, #8]
 341:Drivers/STM32F4xx_HAL_Driver/Src/stm32f4xx_hal_rtc_ex.c **** 
 342:Drivers/STM32F4xx_HAL_Driver/Src/stm32f4xx_hal_rtc_ex.c ****   /* Enable the write protection for RTC registers */
 343:Drivers/STM32F4xx_HAL_Driver/Src/stm32f4xx_hal_rtc_ex.c ****   __HAL_RTC_WRITEPROTECTION_ENABLE(hrtc);
 374              		.loc 1 343 3 is_stmt 1 discriminator 2 view .LVU108
 375              		.loc 1 343 3 discriminator 2 view .LVU109
 376 0032 0368     		ldr	r3, [r0]
 377              	.LVL22:
 378              		.loc 1 343 3 is_stmt 0 discriminator 2 view .LVU110
 379 0034 FF21     		movs	r1, #255
 380              	.LVL23:
 381              		.loc 1 343 3 discriminator 2 view .LVU111
 382 0036 5962     		str	r1, [r3, #36]
 344:Drivers/STM32F4xx_HAL_Driver/Src/stm32f4xx_hal_rtc_ex.c **** 
 345:Drivers/STM32F4xx_HAL_Driver/Src/stm32f4xx_hal_rtc_ex.c ****   hrtc->State = HAL_RTC_STATE_READY;
 383              		.loc 1 345 3 is_stmt 1 discriminator 2 view .LVU112
 384              		.loc 1 345 15 is_stmt 0 discriminator 2 view .LVU113
 385 0038 4277     		strb	r2, [r0, #29]
 346:Drivers/STM32F4xx_HAL_Driver/Src/stm32f4xx_hal_rtc_ex.c **** 
 347:Drivers/STM32F4xx_HAL_Driver/Src/stm32f4xx_hal_rtc_ex.c ****   /* Process Unlocked */
 348:Drivers/STM32F4xx_HAL_Driver/Src/stm32f4xx_hal_rtc_ex.c ****   __HAL_UNLOCK(hrtc);
 386              		.loc 1 348 3 is_stmt 1 discriminator 2 view .LVU114
 387              		.loc 1 348 3 discriminator 2 view .LVU115
 388 003a 0023     		movs	r3, #0
 389 003c 0377     		strb	r3, [r0, #28]
 349:Drivers/STM32F4xx_HAL_Driver/Src/stm32f4xx_hal_rtc_ex.c **** 
 350:Drivers/STM32F4xx_HAL_Driver/Src/stm32f4xx_hal_rtc_ex.c ****   return HAL_OK;
 390              		.loc 1 350 3 discriminator 2 view .LVU116
 391              		.loc 1 350 10 is_stmt 0 discriminator 2 view .LVU117
 392 003e 1846     		mov	r0, r3
ARM GAS  /tmp/ccTwdjOX.s 			page 14


 393              	.LVL24:
 394              		.loc 1 350 10 discriminator 2 view .LVU118
 395 0040 7047     		bx	lr
 396              	.LVL25:
 397              	.L13:
 326:Drivers/STM32F4xx_HAL_Driver/Src/stm32f4xx_hal_rtc_ex.c **** 
 398              		.loc 1 326 3 view .LVU119
 399 0042 0220     		movs	r0, #2
 400              	.LVL26:
 351:Drivers/STM32F4xx_HAL_Driver/Src/stm32f4xx_hal_rtc_ex.c **** }
 401              		.loc 1 351 1 view .LVU120
 402 0044 7047     		bx	lr
 403              		.cfi_endproc
 404              	.LFE237:
 406              		.section	.text.HAL_RTCEx_GetTimeStamp,"ax",%progbits
 407              		.align	1
 408              		.global	HAL_RTCEx_GetTimeStamp
 409              		.syntax unified
 410              		.thumb
 411              		.thumb_func
 412              		.fpu fpv4-sp-d16
 414              	HAL_RTCEx_GetTimeStamp:
 415              	.LVL27:
 416              	.LFB238:
 352:Drivers/STM32F4xx_HAL_Driver/Src/stm32f4xx_hal_rtc_ex.c **** 
 353:Drivers/STM32F4xx_HAL_Driver/Src/stm32f4xx_hal_rtc_ex.c **** /**
 354:Drivers/STM32F4xx_HAL_Driver/Src/stm32f4xx_hal_rtc_ex.c ****   * @brief  Gets the RTC Timestamp value.
 355:Drivers/STM32F4xx_HAL_Driver/Src/stm32f4xx_hal_rtc_ex.c ****   * @param  hrtc pointer to a RTC_HandleTypeDef structure that contains
 356:Drivers/STM32F4xx_HAL_Driver/Src/stm32f4xx_hal_rtc_ex.c ****   *                the configuration information for RTC.
 357:Drivers/STM32F4xx_HAL_Driver/Src/stm32f4xx_hal_rtc_ex.c ****   * @param  sTimeStamp Pointer to Time structure
 358:Drivers/STM32F4xx_HAL_Driver/Src/stm32f4xx_hal_rtc_ex.c ****   * @param  sTimeStampDate Pointer to Date structure
 359:Drivers/STM32F4xx_HAL_Driver/Src/stm32f4xx_hal_rtc_ex.c ****   * @param  Format specifies the format of the entered parameters.
 360:Drivers/STM32F4xx_HAL_Driver/Src/stm32f4xx_hal_rtc_ex.c ****   *          This parameter can be one of the following values:
 361:Drivers/STM32F4xx_HAL_Driver/Src/stm32f4xx_hal_rtc_ex.c ****   *             @arg RTC_FORMAT_BIN: Binary data format
 362:Drivers/STM32F4xx_HAL_Driver/Src/stm32f4xx_hal_rtc_ex.c ****   *             @arg RTC_FORMAT_BCD: BCD data format
 363:Drivers/STM32F4xx_HAL_Driver/Src/stm32f4xx_hal_rtc_ex.c ****   * @retval HAL status
 364:Drivers/STM32F4xx_HAL_Driver/Src/stm32f4xx_hal_rtc_ex.c ****   */
 365:Drivers/STM32F4xx_HAL_Driver/Src/stm32f4xx_hal_rtc_ex.c **** HAL_StatusTypeDef HAL_RTCEx_GetTimeStamp(RTC_HandleTypeDef *hrtc, RTC_TimeTypeDef *sTimeStamp, RTC_
 366:Drivers/STM32F4xx_HAL_Driver/Src/stm32f4xx_hal_rtc_ex.c **** {
 417              		.loc 1 366 1 is_stmt 1 view -0
 418              		.cfi_startproc
 419              		@ args = 0, pretend = 0, frame = 0
 420              		@ frame_needed = 0, uses_anonymous_args = 0
 421              		.loc 1 366 1 is_stmt 0 view .LVU122
 422 0000 70B5     		push	{r4, r5, r6, lr}
 423              	.LCFI6:
 424              		.cfi_def_cfa_offset 16
 425              		.cfi_offset 4, -16
 426              		.cfi_offset 5, -12
 427              		.cfi_offset 6, -8
 428              		.cfi_offset 14, -4
 429 0002 0646     		mov	r6, r0
 430 0004 0C46     		mov	r4, r1
 431 0006 1546     		mov	r5, r2
 367:Drivers/STM32F4xx_HAL_Driver/Src/stm32f4xx_hal_rtc_ex.c ****   uint32_t tmptime = 0U;
 432              		.loc 1 367 3 is_stmt 1 view .LVU123
 433              	.LVL28:
ARM GAS  /tmp/ccTwdjOX.s 			page 15


 368:Drivers/STM32F4xx_HAL_Driver/Src/stm32f4xx_hal_rtc_ex.c ****   uint32_t tmpdate = 0U;
 434              		.loc 1 368 3 view .LVU124
 369:Drivers/STM32F4xx_HAL_Driver/Src/stm32f4xx_hal_rtc_ex.c **** 
 370:Drivers/STM32F4xx_HAL_Driver/Src/stm32f4xx_hal_rtc_ex.c ****   /* Check the parameters */
 371:Drivers/STM32F4xx_HAL_Driver/Src/stm32f4xx_hal_rtc_ex.c ****   assert_param(IS_RTC_FORMAT(Format));
 435              		.loc 1 371 3 view .LVU125
 372:Drivers/STM32F4xx_HAL_Driver/Src/stm32f4xx_hal_rtc_ex.c **** 
 373:Drivers/STM32F4xx_HAL_Driver/Src/stm32f4xx_hal_rtc_ex.c ****   /* Get the Timestamp time and date registers values */
 374:Drivers/STM32F4xx_HAL_Driver/Src/stm32f4xx_hal_rtc_ex.c ****   tmptime = (uint32_t)(hrtc->Instance->TSTR & RTC_TR_RESERVED_MASK);
 436              		.loc 1 374 3 view .LVU126
 437              		.loc 1 374 28 is_stmt 0 view .LVU127
 438 0008 0168     		ldr	r1, [r0]
 439              	.LVL29:
 440              		.loc 1 374 38 view .LVU128
 441 000a 0A6B     		ldr	r2, [r1, #48]
 442              	.LVL30:
 443              		.loc 1 374 11 view .LVU129
 444 000c 02F07F32 		and	r2, r2, #2139062143
 445 0010 22F0FE42 		bic	r2, r2, #2130706432
 446              	.LVL31:
 375:Drivers/STM32F4xx_HAL_Driver/Src/stm32f4xx_hal_rtc_ex.c ****   tmpdate = (uint32_t)(hrtc->Instance->TSDR & RTC_DR_RESERVED_MASK);
 447              		.loc 1 375 3 is_stmt 1 view .LVU130
 448              		.loc 1 375 38 is_stmt 0 view .LVU131
 449 0014 496B     		ldr	r1, [r1, #52]
 450              		.loc 1 375 11 view .LVU132
 451 0016 21F07F41 		bic	r1, r1, #-16777216
 452 001a 21F0C001 		bic	r1, r1, #192
 453              	.LVL32:
 376:Drivers/STM32F4xx_HAL_Driver/Src/stm32f4xx_hal_rtc_ex.c **** 
 377:Drivers/STM32F4xx_HAL_Driver/Src/stm32f4xx_hal_rtc_ex.c ****   /* Fill the Time structure fields with the read parameters */
 378:Drivers/STM32F4xx_HAL_Driver/Src/stm32f4xx_hal_rtc_ex.c ****   sTimeStamp->Hours      = (uint8_t)((tmptime & (RTC_TSTR_HT  | RTC_TSTR_HU))  >> RTC_TSTR_HU_Pos);
 454              		.loc 1 378 3 is_stmt 1 view .LVU133
 455              		.loc 1 378 28 is_stmt 0 view .LVU134
 456 001e C2F30540 		ubfx	r0, r2, #16, #6
 457              	.LVL33:
 458              		.loc 1 378 26 view .LVU135
 459 0022 2070     		strb	r0, [r4]
 379:Drivers/STM32F4xx_HAL_Driver/Src/stm32f4xx_hal_rtc_ex.c ****   sTimeStamp->Minutes    = (uint8_t)((tmptime & (RTC_TSTR_MNT | RTC_TSTR_MNU)) >> RTC_TSTR_MNU_Pos)
 460              		.loc 1 379 3 is_stmt 1 view .LVU136
 461              		.loc 1 379 28 is_stmt 0 view .LVU137
 462 0024 C2F30620 		ubfx	r0, r2, #8, #7
 463              		.loc 1 379 26 view .LVU138
 464 0028 6070     		strb	r0, [r4, #1]
 380:Drivers/STM32F4xx_HAL_Driver/Src/stm32f4xx_hal_rtc_ex.c ****   sTimeStamp->Seconds    = (uint8_t)((tmptime & (RTC_TSTR_ST  | RTC_TSTR_SU))  >> RTC_TSTR_SU_Pos);
 465              		.loc 1 380 3 is_stmt 1 view .LVU139
 466              		.loc 1 380 26 is_stmt 0 view .LVU140
 467 002a A270     		strb	r2, [r4, #2]
 381:Drivers/STM32F4xx_HAL_Driver/Src/stm32f4xx_hal_rtc_ex.c ****   sTimeStamp->TimeFormat = (uint8_t)((tmptime & (RTC_TSTR_PM))                 >> RTC_TSTR_PM_Pos);
 468              		.loc 1 381 3 is_stmt 1 view .LVU141
 469              		.loc 1 381 28 is_stmt 0 view .LVU142
 470 002c 920D     		lsrs	r2, r2, #22
 471              	.LVL34:
 472              		.loc 1 381 26 view .LVU143
 473 002e E270     		strb	r2, [r4, #3]
 382:Drivers/STM32F4xx_HAL_Driver/Src/stm32f4xx_hal_rtc_ex.c ****   sTimeStamp->SubSeconds = (uint32_t) hrtc->Instance->TSSSR;
 474              		.loc 1 382 3 is_stmt 1 view .LVU144
 475              		.loc 1 382 43 is_stmt 0 view .LVU145
ARM GAS  /tmp/ccTwdjOX.s 			page 16


 476 0030 3268     		ldr	r2, [r6]
 477              		.loc 1 382 53 view .LVU146
 478 0032 926B     		ldr	r2, [r2, #56]
 479              		.loc 1 382 26 view .LVU147
 480 0034 6260     		str	r2, [r4, #4]
 383:Drivers/STM32F4xx_HAL_Driver/Src/stm32f4xx_hal_rtc_ex.c **** 
 384:Drivers/STM32F4xx_HAL_Driver/Src/stm32f4xx_hal_rtc_ex.c ****   /* Fill the Date structure fields with the read parameters */
 385:Drivers/STM32F4xx_HAL_Driver/Src/stm32f4xx_hal_rtc_ex.c ****   sTimeStampDate->Year    = 0U;
 481              		.loc 1 385 3 is_stmt 1 view .LVU148
 482              		.loc 1 385 27 is_stmt 0 view .LVU149
 483 0036 0022     		movs	r2, #0
 484 0038 EA70     		strb	r2, [r5, #3]
 386:Drivers/STM32F4xx_HAL_Driver/Src/stm32f4xx_hal_rtc_ex.c ****   sTimeStampDate->Month   = (uint8_t)((tmpdate & (RTC_TSDR_MT | RTC_TSDR_MU)) >> RTC_TSDR_MU_Pos);
 485              		.loc 1 386 3 is_stmt 1 view .LVU150
 486              		.loc 1 386 29 is_stmt 0 view .LVU151
 487 003a C1F30422 		ubfx	r2, r1, #8, #5
 488              		.loc 1 386 27 view .LVU152
 489 003e 6A70     		strb	r2, [r5, #1]
 387:Drivers/STM32F4xx_HAL_Driver/Src/stm32f4xx_hal_rtc_ex.c ****   sTimeStampDate->Date    = (uint8_t)((tmpdate & (RTC_TSDR_DT | RTC_TSDR_DU)) >> RTC_TSDR_DU_Pos);
 490              		.loc 1 387 3 is_stmt 1 view .LVU153
 491              		.loc 1 387 27 is_stmt 0 view .LVU154
 492 0040 A970     		strb	r1, [r5, #2]
 388:Drivers/STM32F4xx_HAL_Driver/Src/stm32f4xx_hal_rtc_ex.c ****   sTimeStampDate->WeekDay = (uint8_t)((tmpdate & (RTC_TSDR_WDU))              >> RTC_TSDR_WDU_Pos);
 493              		.loc 1 388 3 is_stmt 1 view .LVU155
 494              		.loc 1 388 29 is_stmt 0 view .LVU156
 495 0042 C1F34231 		ubfx	r1, r1, #13, #3
 496              	.LVL35:
 497              		.loc 1 388 27 view .LVU157
 498 0046 2970     		strb	r1, [r5]
 389:Drivers/STM32F4xx_HAL_Driver/Src/stm32f4xx_hal_rtc_ex.c **** 
 390:Drivers/STM32F4xx_HAL_Driver/Src/stm32f4xx_hal_rtc_ex.c ****   /* Check the input parameters format */
 391:Drivers/STM32F4xx_HAL_Driver/Src/stm32f4xx_hal_rtc_ex.c ****   if (Format == RTC_FORMAT_BIN)
 499              		.loc 1 391 3 is_stmt 1 view .LVU158
 500              		.loc 1 391 6 is_stmt 0 view .LVU159
 501 0048 3BB1     		cbz	r3, .L17
 502              	.LVL36:
 503              	.L15:
 392:Drivers/STM32F4xx_HAL_Driver/Src/stm32f4xx_hal_rtc_ex.c ****   {
 393:Drivers/STM32F4xx_HAL_Driver/Src/stm32f4xx_hal_rtc_ex.c ****     /* Convert the Timestamp structure parameters to Binary format */
 394:Drivers/STM32F4xx_HAL_Driver/Src/stm32f4xx_hal_rtc_ex.c ****     sTimeStamp->Hours   = (uint8_t)RTC_Bcd2ToByte(sTimeStamp->Hours);
 395:Drivers/STM32F4xx_HAL_Driver/Src/stm32f4xx_hal_rtc_ex.c ****     sTimeStamp->Minutes = (uint8_t)RTC_Bcd2ToByte(sTimeStamp->Minutes);
 396:Drivers/STM32F4xx_HAL_Driver/Src/stm32f4xx_hal_rtc_ex.c ****     sTimeStamp->Seconds = (uint8_t)RTC_Bcd2ToByte(sTimeStamp->Seconds);
 397:Drivers/STM32F4xx_HAL_Driver/Src/stm32f4xx_hal_rtc_ex.c **** 
 398:Drivers/STM32F4xx_HAL_Driver/Src/stm32f4xx_hal_rtc_ex.c ****     /* Convert the DateTimeStamp structure parameters to Binary format */
 399:Drivers/STM32F4xx_HAL_Driver/Src/stm32f4xx_hal_rtc_ex.c ****     sTimeStampDate->Month   = (uint8_t)RTC_Bcd2ToByte(sTimeStampDate->Month);
 400:Drivers/STM32F4xx_HAL_Driver/Src/stm32f4xx_hal_rtc_ex.c ****     sTimeStampDate->Date    = (uint8_t)RTC_Bcd2ToByte(sTimeStampDate->Date);
 401:Drivers/STM32F4xx_HAL_Driver/Src/stm32f4xx_hal_rtc_ex.c ****     sTimeStampDate->WeekDay = (uint8_t)RTC_Bcd2ToByte(sTimeStampDate->WeekDay);
 402:Drivers/STM32F4xx_HAL_Driver/Src/stm32f4xx_hal_rtc_ex.c ****   }
 403:Drivers/STM32F4xx_HAL_Driver/Src/stm32f4xx_hal_rtc_ex.c **** 
 404:Drivers/STM32F4xx_HAL_Driver/Src/stm32f4xx_hal_rtc_ex.c ****   /* Clear the Timestamp Flag */
 405:Drivers/STM32F4xx_HAL_Driver/Src/stm32f4xx_hal_rtc_ex.c ****   __HAL_RTC_TIMESTAMP_CLEAR_FLAG(hrtc, RTC_FLAG_TSF);
 504              		.loc 1 405 3 is_stmt 1 view .LVU160
 505 004a 3268     		ldr	r2, [r6]
 506 004c D368     		ldr	r3, [r2, #12]
 507 004e DBB2     		uxtb	r3, r3
 508 0050 63F40863 		orn	r3, r3, #2176
 509 0054 D360     		str	r3, [r2, #12]
ARM GAS  /tmp/ccTwdjOX.s 			page 17


 406:Drivers/STM32F4xx_HAL_Driver/Src/stm32f4xx_hal_rtc_ex.c **** 
 407:Drivers/STM32F4xx_HAL_Driver/Src/stm32f4xx_hal_rtc_ex.c ****   return HAL_OK;
 510              		.loc 1 407 3 view .LVU161
 408:Drivers/STM32F4xx_HAL_Driver/Src/stm32f4xx_hal_rtc_ex.c **** }
 511              		.loc 1 408 1 is_stmt 0 view .LVU162
 512 0056 0020     		movs	r0, #0
 513 0058 70BD     		pop	{r4, r5, r6, pc}
 514              	.LVL37:
 515              	.L17:
 394:Drivers/STM32F4xx_HAL_Driver/Src/stm32f4xx_hal_rtc_ex.c ****     sTimeStamp->Minutes = (uint8_t)RTC_Bcd2ToByte(sTimeStamp->Minutes);
 516              		.loc 1 394 5 is_stmt 1 view .LVU163
 394:Drivers/STM32F4xx_HAL_Driver/Src/stm32f4xx_hal_rtc_ex.c ****     sTimeStamp->Minutes = (uint8_t)RTC_Bcd2ToByte(sTimeStamp->Minutes);
 517              		.loc 1 394 36 is_stmt 0 view .LVU164
 518 005a 2078     		ldrb	r0, [r4]	@ zero_extendqisi2
 519 005c FFF7FEFF 		bl	RTC_Bcd2ToByte
 520              	.LVL38:
 394:Drivers/STM32F4xx_HAL_Driver/Src/stm32f4xx_hal_rtc_ex.c ****     sTimeStamp->Minutes = (uint8_t)RTC_Bcd2ToByte(sTimeStamp->Minutes);
 521              		.loc 1 394 25 view .LVU165
 522 0060 2070     		strb	r0, [r4]
 395:Drivers/STM32F4xx_HAL_Driver/Src/stm32f4xx_hal_rtc_ex.c ****     sTimeStamp->Seconds = (uint8_t)RTC_Bcd2ToByte(sTimeStamp->Seconds);
 523              		.loc 1 395 5 is_stmt 1 view .LVU166
 395:Drivers/STM32F4xx_HAL_Driver/Src/stm32f4xx_hal_rtc_ex.c ****     sTimeStamp->Seconds = (uint8_t)RTC_Bcd2ToByte(sTimeStamp->Seconds);
 524              		.loc 1 395 36 is_stmt 0 view .LVU167
 525 0062 6078     		ldrb	r0, [r4, #1]	@ zero_extendqisi2
 526 0064 FFF7FEFF 		bl	RTC_Bcd2ToByte
 527              	.LVL39:
 395:Drivers/STM32F4xx_HAL_Driver/Src/stm32f4xx_hal_rtc_ex.c ****     sTimeStamp->Seconds = (uint8_t)RTC_Bcd2ToByte(sTimeStamp->Seconds);
 528              		.loc 1 395 25 view .LVU168
 529 0068 6070     		strb	r0, [r4, #1]
 396:Drivers/STM32F4xx_HAL_Driver/Src/stm32f4xx_hal_rtc_ex.c **** 
 530              		.loc 1 396 5 is_stmt 1 view .LVU169
 396:Drivers/STM32F4xx_HAL_Driver/Src/stm32f4xx_hal_rtc_ex.c **** 
 531              		.loc 1 396 36 is_stmt 0 view .LVU170
 532 006a A078     		ldrb	r0, [r4, #2]	@ zero_extendqisi2
 533 006c FFF7FEFF 		bl	RTC_Bcd2ToByte
 534              	.LVL40:
 396:Drivers/STM32F4xx_HAL_Driver/Src/stm32f4xx_hal_rtc_ex.c **** 
 535              		.loc 1 396 25 view .LVU171
 536 0070 A070     		strb	r0, [r4, #2]
 399:Drivers/STM32F4xx_HAL_Driver/Src/stm32f4xx_hal_rtc_ex.c ****     sTimeStampDate->Date    = (uint8_t)RTC_Bcd2ToByte(sTimeStampDate->Date);
 537              		.loc 1 399 5 is_stmt 1 view .LVU172
 399:Drivers/STM32F4xx_HAL_Driver/Src/stm32f4xx_hal_rtc_ex.c ****     sTimeStampDate->Date    = (uint8_t)RTC_Bcd2ToByte(sTimeStampDate->Date);
 538              		.loc 1 399 40 is_stmt 0 view .LVU173
 539 0072 6878     		ldrb	r0, [r5, #1]	@ zero_extendqisi2
 540 0074 FFF7FEFF 		bl	RTC_Bcd2ToByte
 541              	.LVL41:
 399:Drivers/STM32F4xx_HAL_Driver/Src/stm32f4xx_hal_rtc_ex.c ****     sTimeStampDate->Date    = (uint8_t)RTC_Bcd2ToByte(sTimeStampDate->Date);
 542              		.loc 1 399 29 view .LVU174
 543 0078 6870     		strb	r0, [r5, #1]
 400:Drivers/STM32F4xx_HAL_Driver/Src/stm32f4xx_hal_rtc_ex.c ****     sTimeStampDate->WeekDay = (uint8_t)RTC_Bcd2ToByte(sTimeStampDate->WeekDay);
 544              		.loc 1 400 5 is_stmt 1 view .LVU175
 400:Drivers/STM32F4xx_HAL_Driver/Src/stm32f4xx_hal_rtc_ex.c ****     sTimeStampDate->WeekDay = (uint8_t)RTC_Bcd2ToByte(sTimeStampDate->WeekDay);
 545              		.loc 1 400 40 is_stmt 0 view .LVU176
 546 007a A878     		ldrb	r0, [r5, #2]	@ zero_extendqisi2
 547 007c FFF7FEFF 		bl	RTC_Bcd2ToByte
 548              	.LVL42:
 400:Drivers/STM32F4xx_HAL_Driver/Src/stm32f4xx_hal_rtc_ex.c ****     sTimeStampDate->WeekDay = (uint8_t)RTC_Bcd2ToByte(sTimeStampDate->WeekDay);
ARM GAS  /tmp/ccTwdjOX.s 			page 18


 549              		.loc 1 400 29 view .LVU177
 550 0080 A870     		strb	r0, [r5, #2]
 401:Drivers/STM32F4xx_HAL_Driver/Src/stm32f4xx_hal_rtc_ex.c ****   }
 551              		.loc 1 401 5 is_stmt 1 view .LVU178
 401:Drivers/STM32F4xx_HAL_Driver/Src/stm32f4xx_hal_rtc_ex.c ****   }
 552              		.loc 1 401 40 is_stmt 0 view .LVU179
 553 0082 2878     		ldrb	r0, [r5]	@ zero_extendqisi2
 554 0084 FFF7FEFF 		bl	RTC_Bcd2ToByte
 555              	.LVL43:
 401:Drivers/STM32F4xx_HAL_Driver/Src/stm32f4xx_hal_rtc_ex.c ****   }
 556              		.loc 1 401 29 view .LVU180
 557 0088 2870     		strb	r0, [r5]
 558 008a DEE7     		b	.L15
 559              		.cfi_endproc
 560              	.LFE238:
 562              		.section	.text.HAL_RTCEx_SetTamper,"ax",%progbits
 563              		.align	1
 564              		.global	HAL_RTCEx_SetTamper
 565              		.syntax unified
 566              		.thumb
 567              		.thumb_func
 568              		.fpu fpv4-sp-d16
 570              	HAL_RTCEx_SetTamper:
 571              	.LVL44:
 572              	.LFB239:
 409:Drivers/STM32F4xx_HAL_Driver/Src/stm32f4xx_hal_rtc_ex.c **** 
 410:Drivers/STM32F4xx_HAL_Driver/Src/stm32f4xx_hal_rtc_ex.c **** /**
 411:Drivers/STM32F4xx_HAL_Driver/Src/stm32f4xx_hal_rtc_ex.c ****   * @brief  Sets Tamper.
 412:Drivers/STM32F4xx_HAL_Driver/Src/stm32f4xx_hal_rtc_ex.c ****   * @note   By calling this API the tamper global interrupt will be disabled.
 413:Drivers/STM32F4xx_HAL_Driver/Src/stm32f4xx_hal_rtc_ex.c ****   * @param  hrtc pointer to a RTC_HandleTypeDef structure that contains
 414:Drivers/STM32F4xx_HAL_Driver/Src/stm32f4xx_hal_rtc_ex.c ****   *                the configuration information for RTC.
 415:Drivers/STM32F4xx_HAL_Driver/Src/stm32f4xx_hal_rtc_ex.c ****   * @param  sTamper Pointer to Tamper Structure.
 416:Drivers/STM32F4xx_HAL_Driver/Src/stm32f4xx_hal_rtc_ex.c ****   * @retval HAL status
 417:Drivers/STM32F4xx_HAL_Driver/Src/stm32f4xx_hal_rtc_ex.c ****   */
 418:Drivers/STM32F4xx_HAL_Driver/Src/stm32f4xx_hal_rtc_ex.c **** HAL_StatusTypeDef HAL_RTCEx_SetTamper(RTC_HandleTypeDef *hrtc, RTC_TamperTypeDef *sTamper)
 419:Drivers/STM32F4xx_HAL_Driver/Src/stm32f4xx_hal_rtc_ex.c **** {
 573              		.loc 1 419 1 is_stmt 1 view -0
 574              		.cfi_startproc
 575              		@ args = 0, pretend = 0, frame = 0
 576              		@ frame_needed = 0, uses_anonymous_args = 0
 577              		@ link register save eliminated.
 420:Drivers/STM32F4xx_HAL_Driver/Src/stm32f4xx_hal_rtc_ex.c ****   uint32_t tmpreg = 0U;
 578              		.loc 1 420 3 view .LVU182
 421:Drivers/STM32F4xx_HAL_Driver/Src/stm32f4xx_hal_rtc_ex.c **** 
 422:Drivers/STM32F4xx_HAL_Driver/Src/stm32f4xx_hal_rtc_ex.c ****   /* Check the parameters */
 423:Drivers/STM32F4xx_HAL_Driver/Src/stm32f4xx_hal_rtc_ex.c ****   assert_param(IS_RTC_TAMPER(sTamper->Tamper));
 579              		.loc 1 423 3 view .LVU183
 424:Drivers/STM32F4xx_HAL_Driver/Src/stm32f4xx_hal_rtc_ex.c ****   assert_param(IS_RTC_TAMPER_PIN(sTamper->PinSelection));
 580              		.loc 1 424 3 view .LVU184
 425:Drivers/STM32F4xx_HAL_Driver/Src/stm32f4xx_hal_rtc_ex.c ****   assert_param(IS_RTC_TAMPER_TRIGGER(sTamper->Trigger));
 581              		.loc 1 425 3 view .LVU185
 426:Drivers/STM32F4xx_HAL_Driver/Src/stm32f4xx_hal_rtc_ex.c ****   assert_param(IS_RTC_TAMPER_FILTER(sTamper->Filter));
 582              		.loc 1 426 3 view .LVU186
 427:Drivers/STM32F4xx_HAL_Driver/Src/stm32f4xx_hal_rtc_ex.c ****   assert_param(IS_RTC_TAMPER_FILTER_CONFIG_CORRECT(sTamper->Filter, sTamper->Trigger));
 583              		.loc 1 427 3 view .LVU187
 428:Drivers/STM32F4xx_HAL_Driver/Src/stm32f4xx_hal_rtc_ex.c ****   assert_param(IS_RTC_TAMPER_SAMPLING_FREQ(sTamper->SamplingFrequency));
 584              		.loc 1 428 3 view .LVU188
ARM GAS  /tmp/ccTwdjOX.s 			page 19


 429:Drivers/STM32F4xx_HAL_Driver/Src/stm32f4xx_hal_rtc_ex.c ****   assert_param(IS_RTC_TAMPER_PRECHARGE_DURATION(sTamper->PrechargeDuration));
 585              		.loc 1 429 3 view .LVU189
 430:Drivers/STM32F4xx_HAL_Driver/Src/stm32f4xx_hal_rtc_ex.c ****   assert_param(IS_RTC_TAMPER_PULLUP_STATE(sTamper->TamperPullUp));
 586              		.loc 1 430 3 view .LVU190
 431:Drivers/STM32F4xx_HAL_Driver/Src/stm32f4xx_hal_rtc_ex.c ****   assert_param(IS_RTC_TAMPER_TIMESTAMPONTAMPER_DETECTION(sTamper->TimeStampOnTamperDetection));
 587              		.loc 1 431 3 view .LVU191
 432:Drivers/STM32F4xx_HAL_Driver/Src/stm32f4xx_hal_rtc_ex.c **** 
 433:Drivers/STM32F4xx_HAL_Driver/Src/stm32f4xx_hal_rtc_ex.c ****   /* Process Locked */
 434:Drivers/STM32F4xx_HAL_Driver/Src/stm32f4xx_hal_rtc_ex.c ****   __HAL_LOCK(hrtc);
 588              		.loc 1 434 3 view .LVU192
 589              		.loc 1 434 3 view .LVU193
 590 0000 037F     		ldrb	r3, [r0, #28]	@ zero_extendqisi2
 591 0002 012B     		cmp	r3, #1
 592 0004 2AD0     		beq	.L22
 419:Drivers/STM32F4xx_HAL_Driver/Src/stm32f4xx_hal_rtc_ex.c ****   uint32_t tmpreg = 0U;
 593              		.loc 1 419 1 is_stmt 0 discriminator 2 view .LVU194
 594 0006 30B4     		push	{r4, r5}
 595              	.LCFI7:
 596              		.cfi_def_cfa_offset 8
 597              		.cfi_offset 4, -8
 598              		.cfi_offset 5, -4
 599              		.loc 1 434 3 is_stmt 1 discriminator 2 view .LVU195
 600 0008 0123     		movs	r3, #1
 601 000a 0377     		strb	r3, [r0, #28]
 435:Drivers/STM32F4xx_HAL_Driver/Src/stm32f4xx_hal_rtc_ex.c **** 
 436:Drivers/STM32F4xx_HAL_Driver/Src/stm32f4xx_hal_rtc_ex.c ****   hrtc->State = HAL_RTC_STATE_BUSY;
 602              		.loc 1 436 3 discriminator 2 view .LVU196
 603              		.loc 1 436 15 is_stmt 0 discriminator 2 view .LVU197
 604 000c 0223     		movs	r3, #2
 605 000e 4377     		strb	r3, [r0, #29]
 437:Drivers/STM32F4xx_HAL_Driver/Src/stm32f4xx_hal_rtc_ex.c **** 
 438:Drivers/STM32F4xx_HAL_Driver/Src/stm32f4xx_hal_rtc_ex.c ****   /* Copy control register into temporary variable */
 439:Drivers/STM32F4xx_HAL_Driver/Src/stm32f4xx_hal_rtc_ex.c ****   tmpreg = hrtc->Instance->TAFCR;
 606              		.loc 1 439 3 is_stmt 1 discriminator 2 view .LVU198
 607              		.loc 1 439 16 is_stmt 0 discriminator 2 view .LVU199
 608 0010 0568     		ldr	r5, [r0]
 609              		.loc 1 439 10 discriminator 2 view .LVU200
 610 0012 2B6C     		ldr	r3, [r5, #64]
 611              	.LVL45:
 440:Drivers/STM32F4xx_HAL_Driver/Src/stm32f4xx_hal_rtc_ex.c **** 
 441:Drivers/STM32F4xx_HAL_Driver/Src/stm32f4xx_hal_rtc_ex.c ****   /* Enable selected tamper */
 442:Drivers/STM32F4xx_HAL_Driver/Src/stm32f4xx_hal_rtc_ex.c ****   tmpreg |= (sTamper->Tamper);
 612              		.loc 1 442 3 is_stmt 1 discriminator 2 view .LVU201
 613              		.loc 1 442 21 is_stmt 0 discriminator 2 view .LVU202
 614 0014 0A68     		ldr	r2, [r1]
 615              		.loc 1 442 10 discriminator 2 view .LVU203
 616 0016 1343     		orrs	r3, r3, r2
 617              	.LVL46:
 443:Drivers/STM32F4xx_HAL_Driver/Src/stm32f4xx_hal_rtc_ex.c **** 
 444:Drivers/STM32F4xx_HAL_Driver/Src/stm32f4xx_hal_rtc_ex.c ****   /* Configure the tamper trigger bit (this bit is just on the right of the
 445:Drivers/STM32F4xx_HAL_Driver/Src/stm32f4xx_hal_rtc_ex.c ****        tamper enable bit, hence the one-time right shift before updating it) */
 446:Drivers/STM32F4xx_HAL_Driver/Src/stm32f4xx_hal_rtc_ex.c ****   if (sTamper->Trigger == RTC_TAMPERTRIGGER_FALLINGEDGE)
 618              		.loc 1 446 3 is_stmt 1 discriminator 2 view .LVU204
 619              		.loc 1 446 14 is_stmt 0 discriminator 2 view .LVU205
 620 0018 8C68     		ldr	r4, [r1, #8]
 621              		.loc 1 446 6 discriminator 2 view .LVU206
 622 001a 022C     		cmp	r4, #2
ARM GAS  /tmp/ccTwdjOX.s 			page 20


 623 001c 1BD0     		beq	.L27
 447:Drivers/STM32F4xx_HAL_Driver/Src/stm32f4xx_hal_rtc_ex.c ****   {
 448:Drivers/STM32F4xx_HAL_Driver/Src/stm32f4xx_hal_rtc_ex.c ****     /* Set the tamper trigger bit (case of falling edge or high level) */
 449:Drivers/STM32F4xx_HAL_Driver/Src/stm32f4xx_hal_rtc_ex.c ****     tmpreg |= (uint32_t)(sTamper->Tamper << 1U);
 450:Drivers/STM32F4xx_HAL_Driver/Src/stm32f4xx_hal_rtc_ex.c ****   }
 451:Drivers/STM32F4xx_HAL_Driver/Src/stm32f4xx_hal_rtc_ex.c ****   else
 452:Drivers/STM32F4xx_HAL_Driver/Src/stm32f4xx_hal_rtc_ex.c ****   {
 453:Drivers/STM32F4xx_HAL_Driver/Src/stm32f4xx_hal_rtc_ex.c ****     /* Clear the tamper trigger bit (case of rising edge or low level) */
 454:Drivers/STM32F4xx_HAL_Driver/Src/stm32f4xx_hal_rtc_ex.c ****     tmpreg &= (uint32_t)~(sTamper->Tamper << 1U);
 624              		.loc 1 454 5 is_stmt 1 view .LVU207
 625              		.loc 1 454 12 is_stmt 0 view .LVU208
 626 001e 23EA4203 		bic	r3, r3, r2, lsl #1
 627              	.LVL47:
 628              	.L21:
 455:Drivers/STM32F4xx_HAL_Driver/Src/stm32f4xx_hal_rtc_ex.c ****   }
 456:Drivers/STM32F4xx_HAL_Driver/Src/stm32f4xx_hal_rtc_ex.c **** 
 457:Drivers/STM32F4xx_HAL_Driver/Src/stm32f4xx_hal_rtc_ex.c ****   /* Clear remaining fields before setting them */
 458:Drivers/STM32F4xx_HAL_Driver/Src/stm32f4xx_hal_rtc_ex.c ****   tmpreg &= ~(RTC_TAMPERFILTER_MASK              | \
 629              		.loc 1 458 3 is_stmt 1 view .LVU209
 630              		.loc 1 458 10 is_stmt 0 view .LVU210
 631 0022 23F4FF32 		bic	r2, r3, #130560
 632 0026 22F4C072 		bic	r2, r2, #384
 633              	.LVL48:
 459:Drivers/STM32F4xx_HAL_Driver/Src/stm32f4xx_hal_rtc_ex.c ****               RTC_TAMPERSAMPLINGFREQ_RTCCLK_MASK | \
 460:Drivers/STM32F4xx_HAL_Driver/Src/stm32f4xx_hal_rtc_ex.c ****               RTC_TAMPERPRECHARGEDURATION_MASK   | \
 461:Drivers/STM32F4xx_HAL_Driver/Src/stm32f4xx_hal_rtc_ex.c ****               RTC_TAMPER_PULLUP_MASK             | \
 462:Drivers/STM32F4xx_HAL_Driver/Src/stm32f4xx_hal_rtc_ex.c ****               RTC_TAFCR_TAMP1INSEL               | \
 463:Drivers/STM32F4xx_HAL_Driver/Src/stm32f4xx_hal_rtc_ex.c ****               RTC_TIMESTAMPONTAMPERDETECTION_MASK);
 464:Drivers/STM32F4xx_HAL_Driver/Src/stm32f4xx_hal_rtc_ex.c **** 
 465:Drivers/STM32F4xx_HAL_Driver/Src/stm32f4xx_hal_rtc_ex.c ****   /* Set remaining parameters of desired configuration into temporary variable */
 466:Drivers/STM32F4xx_HAL_Driver/Src/stm32f4xx_hal_rtc_ex.c ****   tmpreg |= ((uint32_t)sTamper->Filter            | \
 634              		.loc 1 466 3 is_stmt 1 view .LVU211
 635              		.loc 1 466 31 is_stmt 0 view .LVU212
 636 002a CB68     		ldr	r3, [r1, #12]
 467:Drivers/STM32F4xx_HAL_Driver/Src/stm32f4xx_hal_rtc_ex.c ****              (uint32_t)sTamper->SamplingFrequency | \
 637              		.loc 1 467 31 view .LVU213
 638 002c 0C69     		ldr	r4, [r1, #16]
 466:Drivers/STM32F4xx_HAL_Driver/Src/stm32f4xx_hal_rtc_ex.c ****              (uint32_t)sTamper->SamplingFrequency | \
 639              		.loc 1 466 51 view .LVU214
 640 002e 2343     		orrs	r3, r3, r4
 468:Drivers/STM32F4xx_HAL_Driver/Src/stm32f4xx_hal_rtc_ex.c ****              (uint32_t)sTamper->PrechargeDuration | \
 641              		.loc 1 468 31 view .LVU215
 642 0030 4C69     		ldr	r4, [r1, #20]
 467:Drivers/STM32F4xx_HAL_Driver/Src/stm32f4xx_hal_rtc_ex.c ****              (uint32_t)sTamper->SamplingFrequency | \
 643              		.loc 1 467 51 view .LVU216
 644 0032 2343     		orrs	r3, r3, r4
 469:Drivers/STM32F4xx_HAL_Driver/Src/stm32f4xx_hal_rtc_ex.c ****              (uint32_t)sTamper->TamperPullUp      | \
 645              		.loc 1 469 31 view .LVU217
 646 0034 8C69     		ldr	r4, [r1, #24]
 468:Drivers/STM32F4xx_HAL_Driver/Src/stm32f4xx_hal_rtc_ex.c ****              (uint32_t)sTamper->PrechargeDuration | \
 647              		.loc 1 468 51 view .LVU218
 648 0036 2343     		orrs	r3, r3, r4
 470:Drivers/STM32F4xx_HAL_Driver/Src/stm32f4xx_hal_rtc_ex.c ****              (uint32_t)sTamper->PinSelection      | \
 649              		.loc 1 470 31 view .LVU219
 650 0038 4C68     		ldr	r4, [r1, #4]
 469:Drivers/STM32F4xx_HAL_Driver/Src/stm32f4xx_hal_rtc_ex.c ****              (uint32_t)sTamper->TamperPullUp      | \
 651              		.loc 1 469 51 view .LVU220
ARM GAS  /tmp/ccTwdjOX.s 			page 21


 652 003a 2343     		orrs	r3, r3, r4
 471:Drivers/STM32F4xx_HAL_Driver/Src/stm32f4xx_hal_rtc_ex.c ****              (uint32_t)sTamper->TimeStampOnTamperDetection);
 653              		.loc 1 471 31 view .LVU221
 654 003c C969     		ldr	r1, [r1, #28]
 655              	.LVL49:
 470:Drivers/STM32F4xx_HAL_Driver/Src/stm32f4xx_hal_rtc_ex.c ****              (uint32_t)sTamper->PinSelection      | \
 656              		.loc 1 470 51 view .LVU222
 657 003e 0B43     		orrs	r3, r3, r1
 466:Drivers/STM32F4xx_HAL_Driver/Src/stm32f4xx_hal_rtc_ex.c ****              (uint32_t)sTamper->SamplingFrequency | \
 658              		.loc 1 466 10 view .LVU223
 659 0040 1343     		orrs	r3, r3, r2
 660              	.LVL50:
 472:Drivers/STM32F4xx_HAL_Driver/Src/stm32f4xx_hal_rtc_ex.c **** 
 473:Drivers/STM32F4xx_HAL_Driver/Src/stm32f4xx_hal_rtc_ex.c ****   /* Disable tamper global interrupt in case it is enabled */
 474:Drivers/STM32F4xx_HAL_Driver/Src/stm32f4xx_hal_rtc_ex.c ****   tmpreg &= (uint32_t)~RTC_TAFCR_TAMPIE;
 661              		.loc 1 474 3 is_stmt 1 view .LVU224
 662              		.loc 1 474 10 is_stmt 0 view .LVU225
 663 0042 23F00403 		bic	r3, r3, #4
 664              	.LVL51:
 475:Drivers/STM32F4xx_HAL_Driver/Src/stm32f4xx_hal_rtc_ex.c **** 
 476:Drivers/STM32F4xx_HAL_Driver/Src/stm32f4xx_hal_rtc_ex.c ****   /* Copy desired configuration into configuration register */
 477:Drivers/STM32F4xx_HAL_Driver/Src/stm32f4xx_hal_rtc_ex.c ****   hrtc->Instance->TAFCR = tmpreg;
 665              		.loc 1 477 3 is_stmt 1 view .LVU226
 666              		.loc 1 477 25 is_stmt 0 view .LVU227
 667 0046 2B64     		str	r3, [r5, #64]
 478:Drivers/STM32F4xx_HAL_Driver/Src/stm32f4xx_hal_rtc_ex.c **** 
 479:Drivers/STM32F4xx_HAL_Driver/Src/stm32f4xx_hal_rtc_ex.c ****   hrtc->State = HAL_RTC_STATE_READY;
 668              		.loc 1 479 3 is_stmt 1 view .LVU228
 669              		.loc 1 479 15 is_stmt 0 view .LVU229
 670 0048 0123     		movs	r3, #1
 671              	.LVL52:
 672              		.loc 1 479 15 view .LVU230
 673 004a 4377     		strb	r3, [r0, #29]
 674              	.LVL53:
 480:Drivers/STM32F4xx_HAL_Driver/Src/stm32f4xx_hal_rtc_ex.c **** 
 481:Drivers/STM32F4xx_HAL_Driver/Src/stm32f4xx_hal_rtc_ex.c ****   /* Process Unlocked */
 482:Drivers/STM32F4xx_HAL_Driver/Src/stm32f4xx_hal_rtc_ex.c ****   __HAL_UNLOCK(hrtc);
 675              		.loc 1 482 3 is_stmt 1 view .LVU231
 676              		.loc 1 482 3 view .LVU232
 677 004c 0023     		movs	r3, #0
 678 004e 0377     		strb	r3, [r0, #28]
 483:Drivers/STM32F4xx_HAL_Driver/Src/stm32f4xx_hal_rtc_ex.c **** 
 484:Drivers/STM32F4xx_HAL_Driver/Src/stm32f4xx_hal_rtc_ex.c ****   return HAL_OK;
 679              		.loc 1 484 3 view .LVU233
 680              		.loc 1 484 10 is_stmt 0 view .LVU234
 681 0050 1846     		mov	r0, r3
 682              	.LVL54:
 485:Drivers/STM32F4xx_HAL_Driver/Src/stm32f4xx_hal_rtc_ex.c **** }
 683              		.loc 1 485 1 view .LVU235
 684 0052 30BC     		pop	{r4, r5}
 685              	.LCFI8:
 686              		.cfi_remember_state
 687              		.cfi_restore 5
 688              		.cfi_restore 4
 689              		.cfi_def_cfa_offset 0
 690 0054 7047     		bx	lr
 691              	.LVL55:
ARM GAS  /tmp/ccTwdjOX.s 			page 22


 692              	.L27:
 693              	.LCFI9:
 694              		.cfi_restore_state
 449:Drivers/STM32F4xx_HAL_Driver/Src/stm32f4xx_hal_rtc_ex.c ****   }
 695              		.loc 1 449 5 is_stmt 1 view .LVU236
 449:Drivers/STM32F4xx_HAL_Driver/Src/stm32f4xx_hal_rtc_ex.c ****   }
 696              		.loc 1 449 12 is_stmt 0 view .LVU237
 697 0056 43EA4203 		orr	r3, r3, r2, lsl #1
 698              	.LVL56:
 449:Drivers/STM32F4xx_HAL_Driver/Src/stm32f4xx_hal_rtc_ex.c ****   }
 699              		.loc 1 449 12 view .LVU238
 700 005a E2E7     		b	.L21
 701              	.LVL57:
 702              	.L22:
 703              	.LCFI10:
 704              		.cfi_def_cfa_offset 0
 705              		.cfi_restore 4
 706              		.cfi_restore 5
 434:Drivers/STM32F4xx_HAL_Driver/Src/stm32f4xx_hal_rtc_ex.c **** 
 707              		.loc 1 434 3 view .LVU239
 708 005c 0220     		movs	r0, #2
 709              	.LVL58:
 710              		.loc 1 485 1 view .LVU240
 711 005e 7047     		bx	lr
 712              		.cfi_endproc
 713              	.LFE239:
 715              		.section	.text.HAL_RTCEx_SetTamper_IT,"ax",%progbits
 716              		.align	1
 717              		.global	HAL_RTCEx_SetTamper_IT
 718              		.syntax unified
 719              		.thumb
 720              		.thumb_func
 721              		.fpu fpv4-sp-d16
 723              	HAL_RTCEx_SetTamper_IT:
 724              	.LVL59:
 725              	.LFB240:
 486:Drivers/STM32F4xx_HAL_Driver/Src/stm32f4xx_hal_rtc_ex.c **** 
 487:Drivers/STM32F4xx_HAL_Driver/Src/stm32f4xx_hal_rtc_ex.c **** /**
 488:Drivers/STM32F4xx_HAL_Driver/Src/stm32f4xx_hal_rtc_ex.c ****   * @brief  Sets Tamper with interrupt.
 489:Drivers/STM32F4xx_HAL_Driver/Src/stm32f4xx_hal_rtc_ex.c ****   * @note   By calling this API the tamper global interrupt will be enabled.
 490:Drivers/STM32F4xx_HAL_Driver/Src/stm32f4xx_hal_rtc_ex.c ****   * @param  hrtc pointer to a RTC_HandleTypeDef structure that contains
 491:Drivers/STM32F4xx_HAL_Driver/Src/stm32f4xx_hal_rtc_ex.c ****   *                the configuration information for RTC.
 492:Drivers/STM32F4xx_HAL_Driver/Src/stm32f4xx_hal_rtc_ex.c ****   * @param  sTamper Pointer to RTC Tamper.
 493:Drivers/STM32F4xx_HAL_Driver/Src/stm32f4xx_hal_rtc_ex.c ****   * @retval HAL status
 494:Drivers/STM32F4xx_HAL_Driver/Src/stm32f4xx_hal_rtc_ex.c ****   */
 495:Drivers/STM32F4xx_HAL_Driver/Src/stm32f4xx_hal_rtc_ex.c **** HAL_StatusTypeDef HAL_RTCEx_SetTamper_IT(RTC_HandleTypeDef *hrtc, RTC_TamperTypeDef *sTamper)
 496:Drivers/STM32F4xx_HAL_Driver/Src/stm32f4xx_hal_rtc_ex.c **** {
 726              		.loc 1 496 1 is_stmt 1 view -0
 727              		.cfi_startproc
 728              		@ args = 0, pretend = 0, frame = 0
 729              		@ frame_needed = 0, uses_anonymous_args = 0
 730              		@ link register save eliminated.
 497:Drivers/STM32F4xx_HAL_Driver/Src/stm32f4xx_hal_rtc_ex.c ****   uint32_t tmpreg = 0U;
 731              		.loc 1 497 3 view .LVU242
 498:Drivers/STM32F4xx_HAL_Driver/Src/stm32f4xx_hal_rtc_ex.c **** 
 499:Drivers/STM32F4xx_HAL_Driver/Src/stm32f4xx_hal_rtc_ex.c ****   /* Check the parameters */
 500:Drivers/STM32F4xx_HAL_Driver/Src/stm32f4xx_hal_rtc_ex.c ****   assert_param(IS_RTC_TAMPER(sTamper->Tamper));
ARM GAS  /tmp/ccTwdjOX.s 			page 23


 732              		.loc 1 500 3 view .LVU243
 501:Drivers/STM32F4xx_HAL_Driver/Src/stm32f4xx_hal_rtc_ex.c ****   assert_param(IS_RTC_TAMPER_PIN(sTamper->PinSelection));
 733              		.loc 1 501 3 view .LVU244
 502:Drivers/STM32F4xx_HAL_Driver/Src/stm32f4xx_hal_rtc_ex.c ****   assert_param(IS_RTC_TAMPER_TRIGGER(sTamper->Trigger));
 734              		.loc 1 502 3 view .LVU245
 503:Drivers/STM32F4xx_HAL_Driver/Src/stm32f4xx_hal_rtc_ex.c ****   assert_param(IS_RTC_TAMPER_FILTER(sTamper->Filter));
 735              		.loc 1 503 3 view .LVU246
 504:Drivers/STM32F4xx_HAL_Driver/Src/stm32f4xx_hal_rtc_ex.c ****   assert_param(IS_RTC_TAMPER_FILTER_CONFIG_CORRECT(sTamper->Filter, sTamper->Trigger));
 736              		.loc 1 504 3 view .LVU247
 505:Drivers/STM32F4xx_HAL_Driver/Src/stm32f4xx_hal_rtc_ex.c ****   assert_param(IS_RTC_TAMPER_SAMPLING_FREQ(sTamper->SamplingFrequency));
 737              		.loc 1 505 3 view .LVU248
 506:Drivers/STM32F4xx_HAL_Driver/Src/stm32f4xx_hal_rtc_ex.c ****   assert_param(IS_RTC_TAMPER_PRECHARGE_DURATION(sTamper->PrechargeDuration));
 738              		.loc 1 506 3 view .LVU249
 507:Drivers/STM32F4xx_HAL_Driver/Src/stm32f4xx_hal_rtc_ex.c ****   assert_param(IS_RTC_TAMPER_PULLUP_STATE(sTamper->TamperPullUp));
 739              		.loc 1 507 3 view .LVU250
 508:Drivers/STM32F4xx_HAL_Driver/Src/stm32f4xx_hal_rtc_ex.c ****   assert_param(IS_RTC_TAMPER_TIMESTAMPONTAMPER_DETECTION(sTamper->TimeStampOnTamperDetection));
 740              		.loc 1 508 3 view .LVU251
 509:Drivers/STM32F4xx_HAL_Driver/Src/stm32f4xx_hal_rtc_ex.c **** 
 510:Drivers/STM32F4xx_HAL_Driver/Src/stm32f4xx_hal_rtc_ex.c ****   /* Process Locked */
 511:Drivers/STM32F4xx_HAL_Driver/Src/stm32f4xx_hal_rtc_ex.c ****   __HAL_LOCK(hrtc);
 741              		.loc 1 511 3 view .LVU252
 742              		.loc 1 511 3 view .LVU253
 743 0000 037F     		ldrb	r3, [r0, #28]	@ zero_extendqisi2
 744 0002 012B     		cmp	r3, #1
 745 0004 33D0     		beq	.L32
 496:Drivers/STM32F4xx_HAL_Driver/Src/stm32f4xx_hal_rtc_ex.c ****   uint32_t tmpreg = 0U;
 746              		.loc 1 496 1 is_stmt 0 discriminator 2 view .LVU254
 747 0006 30B4     		push	{r4, r5}
 748              	.LCFI11:
 749              		.cfi_def_cfa_offset 8
 750              		.cfi_offset 4, -8
 751              		.cfi_offset 5, -4
 752              		.loc 1 511 3 is_stmt 1 discriminator 2 view .LVU255
 753 0008 0123     		movs	r3, #1
 754 000a 0377     		strb	r3, [r0, #28]
 512:Drivers/STM32F4xx_HAL_Driver/Src/stm32f4xx_hal_rtc_ex.c **** 
 513:Drivers/STM32F4xx_HAL_Driver/Src/stm32f4xx_hal_rtc_ex.c ****   hrtc->State = HAL_RTC_STATE_BUSY;
 755              		.loc 1 513 3 discriminator 2 view .LVU256
 756              		.loc 1 513 15 is_stmt 0 discriminator 2 view .LVU257
 757 000c 0223     		movs	r3, #2
 758 000e 4377     		strb	r3, [r0, #29]
 514:Drivers/STM32F4xx_HAL_Driver/Src/stm32f4xx_hal_rtc_ex.c **** 
 515:Drivers/STM32F4xx_HAL_Driver/Src/stm32f4xx_hal_rtc_ex.c ****   /* Copy control register into temporary variable */
 516:Drivers/STM32F4xx_HAL_Driver/Src/stm32f4xx_hal_rtc_ex.c ****   tmpreg = hrtc->Instance->TAFCR;
 759              		.loc 1 516 3 is_stmt 1 discriminator 2 view .LVU258
 760              		.loc 1 516 16 is_stmt 0 discriminator 2 view .LVU259
 761 0010 0568     		ldr	r5, [r0]
 762              		.loc 1 516 10 discriminator 2 view .LVU260
 763 0012 2B6C     		ldr	r3, [r5, #64]
 764              	.LVL60:
 517:Drivers/STM32F4xx_HAL_Driver/Src/stm32f4xx_hal_rtc_ex.c **** 
 518:Drivers/STM32F4xx_HAL_Driver/Src/stm32f4xx_hal_rtc_ex.c ****   /* Enable selected tamper */
 519:Drivers/STM32F4xx_HAL_Driver/Src/stm32f4xx_hal_rtc_ex.c ****   tmpreg |= (sTamper->Tamper);
 765              		.loc 1 519 3 is_stmt 1 discriminator 2 view .LVU261
 766              		.loc 1 519 21 is_stmt 0 discriminator 2 view .LVU262
 767 0014 0A68     		ldr	r2, [r1]
 768              		.loc 1 519 10 discriminator 2 view .LVU263
ARM GAS  /tmp/ccTwdjOX.s 			page 24


 769 0016 1343     		orrs	r3, r3, r2
 770              	.LVL61:
 520:Drivers/STM32F4xx_HAL_Driver/Src/stm32f4xx_hal_rtc_ex.c **** 
 521:Drivers/STM32F4xx_HAL_Driver/Src/stm32f4xx_hal_rtc_ex.c ****   /* Configure the tamper trigger bit (this bit is just on the right of the
 522:Drivers/STM32F4xx_HAL_Driver/Src/stm32f4xx_hal_rtc_ex.c ****        tamper enable bit, hence the one-time right shift before updating it) */
 523:Drivers/STM32F4xx_HAL_Driver/Src/stm32f4xx_hal_rtc_ex.c ****   if (sTamper->Trigger == RTC_TAMPERTRIGGER_FALLINGEDGE)
 771              		.loc 1 523 3 is_stmt 1 discriminator 2 view .LVU264
 772              		.loc 1 523 14 is_stmt 0 discriminator 2 view .LVU265
 773 0018 8C68     		ldr	r4, [r1, #8]
 774              		.loc 1 523 6 discriminator 2 view .LVU266
 775 001a 022C     		cmp	r4, #2
 776 001c 24D0     		beq	.L37
 524:Drivers/STM32F4xx_HAL_Driver/Src/stm32f4xx_hal_rtc_ex.c ****   {
 525:Drivers/STM32F4xx_HAL_Driver/Src/stm32f4xx_hal_rtc_ex.c ****     /* Set the tamper trigger bit (case of falling edge or high level) */
 526:Drivers/STM32F4xx_HAL_Driver/Src/stm32f4xx_hal_rtc_ex.c ****     tmpreg |= (uint32_t)(sTamper->Tamper << 1U);
 527:Drivers/STM32F4xx_HAL_Driver/Src/stm32f4xx_hal_rtc_ex.c ****   }
 528:Drivers/STM32F4xx_HAL_Driver/Src/stm32f4xx_hal_rtc_ex.c ****   else
 529:Drivers/STM32F4xx_HAL_Driver/Src/stm32f4xx_hal_rtc_ex.c ****   {
 530:Drivers/STM32F4xx_HAL_Driver/Src/stm32f4xx_hal_rtc_ex.c ****     /* Clear the tamper trigger bit (case of rising edge or low level) */
 531:Drivers/STM32F4xx_HAL_Driver/Src/stm32f4xx_hal_rtc_ex.c ****     tmpreg &= (uint32_t)~(sTamper->Tamper << 1U);
 777              		.loc 1 531 5 is_stmt 1 view .LVU267
 778              		.loc 1 531 12 is_stmt 0 view .LVU268
 779 001e 23EA4203 		bic	r3, r3, r2, lsl #1
 780              	.LVL62:
 781              	.L31:
 532:Drivers/STM32F4xx_HAL_Driver/Src/stm32f4xx_hal_rtc_ex.c ****   }
 533:Drivers/STM32F4xx_HAL_Driver/Src/stm32f4xx_hal_rtc_ex.c **** 
 534:Drivers/STM32F4xx_HAL_Driver/Src/stm32f4xx_hal_rtc_ex.c ****   /* Clear remaining fields before setting them */
 535:Drivers/STM32F4xx_HAL_Driver/Src/stm32f4xx_hal_rtc_ex.c ****   tmpreg &= ~(RTC_TAMPERFILTER_MASK              | \
 782              		.loc 1 535 3 is_stmt 1 view .LVU269
 783              		.loc 1 535 10 is_stmt 0 view .LVU270
 784 0022 23F4FF32 		bic	r2, r3, #130560
 785 0026 22F4C072 		bic	r2, r2, #384
 786              	.LVL63:
 536:Drivers/STM32F4xx_HAL_Driver/Src/stm32f4xx_hal_rtc_ex.c ****               RTC_TAMPERSAMPLINGFREQ_RTCCLK_MASK | \
 537:Drivers/STM32F4xx_HAL_Driver/Src/stm32f4xx_hal_rtc_ex.c ****               RTC_TAMPERPRECHARGEDURATION_MASK   | \
 538:Drivers/STM32F4xx_HAL_Driver/Src/stm32f4xx_hal_rtc_ex.c ****               RTC_TAMPER_PULLUP_MASK             | \
 539:Drivers/STM32F4xx_HAL_Driver/Src/stm32f4xx_hal_rtc_ex.c ****               RTC_TAFCR_TAMP1INSEL               | \
 540:Drivers/STM32F4xx_HAL_Driver/Src/stm32f4xx_hal_rtc_ex.c ****               RTC_TIMESTAMPONTAMPERDETECTION_MASK);
 541:Drivers/STM32F4xx_HAL_Driver/Src/stm32f4xx_hal_rtc_ex.c **** 
 542:Drivers/STM32F4xx_HAL_Driver/Src/stm32f4xx_hal_rtc_ex.c ****   /* Set remaining parameters of desired configuration into temporary variable */
 543:Drivers/STM32F4xx_HAL_Driver/Src/stm32f4xx_hal_rtc_ex.c ****   tmpreg |= ((uint32_t)sTamper->Filter            | \
 787              		.loc 1 543 3 is_stmt 1 view .LVU271
 788              		.loc 1 543 31 is_stmt 0 view .LVU272
 789 002a CB68     		ldr	r3, [r1, #12]
 544:Drivers/STM32F4xx_HAL_Driver/Src/stm32f4xx_hal_rtc_ex.c ****              (uint32_t)sTamper->SamplingFrequency | \
 790              		.loc 1 544 31 view .LVU273
 791 002c 0C69     		ldr	r4, [r1, #16]
 543:Drivers/STM32F4xx_HAL_Driver/Src/stm32f4xx_hal_rtc_ex.c ****              (uint32_t)sTamper->SamplingFrequency | \
 792              		.loc 1 543 51 view .LVU274
 793 002e 2343     		orrs	r3, r3, r4
 545:Drivers/STM32F4xx_HAL_Driver/Src/stm32f4xx_hal_rtc_ex.c ****              (uint32_t)sTamper->PrechargeDuration | \
 794              		.loc 1 545 31 view .LVU275
 795 0030 4C69     		ldr	r4, [r1, #20]
 544:Drivers/STM32F4xx_HAL_Driver/Src/stm32f4xx_hal_rtc_ex.c ****              (uint32_t)sTamper->SamplingFrequency | \
 796              		.loc 1 544 51 view .LVU276
 797 0032 2343     		orrs	r3, r3, r4
ARM GAS  /tmp/ccTwdjOX.s 			page 25


 546:Drivers/STM32F4xx_HAL_Driver/Src/stm32f4xx_hal_rtc_ex.c ****              (uint32_t)sTamper->TamperPullUp      | \
 798              		.loc 1 546 31 view .LVU277
 799 0034 8C69     		ldr	r4, [r1, #24]
 545:Drivers/STM32F4xx_HAL_Driver/Src/stm32f4xx_hal_rtc_ex.c ****              (uint32_t)sTamper->PrechargeDuration | \
 800              		.loc 1 545 51 view .LVU278
 801 0036 2343     		orrs	r3, r3, r4
 547:Drivers/STM32F4xx_HAL_Driver/Src/stm32f4xx_hal_rtc_ex.c ****              (uint32_t)sTamper->PinSelection      | \
 802              		.loc 1 547 31 view .LVU279
 803 0038 4C68     		ldr	r4, [r1, #4]
 546:Drivers/STM32F4xx_HAL_Driver/Src/stm32f4xx_hal_rtc_ex.c ****              (uint32_t)sTamper->TamperPullUp      | \
 804              		.loc 1 546 51 view .LVU280
 805 003a 2343     		orrs	r3, r3, r4
 548:Drivers/STM32F4xx_HAL_Driver/Src/stm32f4xx_hal_rtc_ex.c ****              (uint32_t)sTamper->TimeStampOnTamperDetection);
 806              		.loc 1 548 31 view .LVU281
 807 003c C969     		ldr	r1, [r1, #28]
 808              	.LVL64:
 547:Drivers/STM32F4xx_HAL_Driver/Src/stm32f4xx_hal_rtc_ex.c ****              (uint32_t)sTamper->PinSelection      | \
 809              		.loc 1 547 51 view .LVU282
 810 003e 0B43     		orrs	r3, r3, r1
 543:Drivers/STM32F4xx_HAL_Driver/Src/stm32f4xx_hal_rtc_ex.c ****              (uint32_t)sTamper->SamplingFrequency | \
 811              		.loc 1 543 10 view .LVU283
 812 0040 1343     		orrs	r3, r3, r2
 813              	.LVL65:
 549:Drivers/STM32F4xx_HAL_Driver/Src/stm32f4xx_hal_rtc_ex.c **** 
 550:Drivers/STM32F4xx_HAL_Driver/Src/stm32f4xx_hal_rtc_ex.c ****   /* Enable global tamper interrupt */
 551:Drivers/STM32F4xx_HAL_Driver/Src/stm32f4xx_hal_rtc_ex.c ****   tmpreg |= (uint32_t)RTC_TAFCR_TAMPIE;
 814              		.loc 1 551 3 is_stmt 1 view .LVU284
 815              		.loc 1 551 10 is_stmt 0 view .LVU285
 816 0042 43F00403 		orr	r3, r3, #4
 817              	.LVL66:
 552:Drivers/STM32F4xx_HAL_Driver/Src/stm32f4xx_hal_rtc_ex.c **** 
 553:Drivers/STM32F4xx_HAL_Driver/Src/stm32f4xx_hal_rtc_ex.c ****   /* Copy desired configuration into configuration register */
 554:Drivers/STM32F4xx_HAL_Driver/Src/stm32f4xx_hal_rtc_ex.c ****   hrtc->Instance->TAFCR = tmpreg;
 818              		.loc 1 554 3 is_stmt 1 view .LVU286
 819              		.loc 1 554 25 is_stmt 0 view .LVU287
 820 0046 2B64     		str	r3, [r5, #64]
 555:Drivers/STM32F4xx_HAL_Driver/Src/stm32f4xx_hal_rtc_ex.c **** 
 556:Drivers/STM32F4xx_HAL_Driver/Src/stm32f4xx_hal_rtc_ex.c ****   /* RTC Tamper Interrupt Configuration: EXTI configuration */
 557:Drivers/STM32F4xx_HAL_Driver/Src/stm32f4xx_hal_rtc_ex.c ****   __HAL_RTC_TAMPER_TIMESTAMP_EXTI_ENABLE_IT();
 821              		.loc 1 557 3 is_stmt 1 view .LVU288
 822 0048 0A4B     		ldr	r3, .L38
 823              	.LVL67:
 824              		.loc 1 557 3 is_stmt 0 view .LVU289
 825 004a 1A68     		ldr	r2, [r3]
 826 004c 42F40012 		orr	r2, r2, #2097152
 827 0050 1A60     		str	r2, [r3]
 828              	.LVL68:
 558:Drivers/STM32F4xx_HAL_Driver/Src/stm32f4xx_hal_rtc_ex.c ****   __HAL_RTC_TAMPER_TIMESTAMP_EXTI_ENABLE_RISING_EDGE();
 829              		.loc 1 558 3 is_stmt 1 view .LVU290
 830 0052 9A68     		ldr	r2, [r3, #8]
 831 0054 42F40012 		orr	r2, r2, #2097152
 832 0058 9A60     		str	r2, [r3, #8]
 559:Drivers/STM32F4xx_HAL_Driver/Src/stm32f4xx_hal_rtc_ex.c **** 
 560:Drivers/STM32F4xx_HAL_Driver/Src/stm32f4xx_hal_rtc_ex.c ****   hrtc->State = HAL_RTC_STATE_READY;
 833              		.loc 1 560 3 view .LVU291
 834              		.loc 1 560 15 is_stmt 0 view .LVU292
 835 005a 0123     		movs	r3, #1
ARM GAS  /tmp/ccTwdjOX.s 			page 26


 836 005c 4377     		strb	r3, [r0, #29]
 561:Drivers/STM32F4xx_HAL_Driver/Src/stm32f4xx_hal_rtc_ex.c **** 
 562:Drivers/STM32F4xx_HAL_Driver/Src/stm32f4xx_hal_rtc_ex.c ****   /* Process Unlocked */
 563:Drivers/STM32F4xx_HAL_Driver/Src/stm32f4xx_hal_rtc_ex.c ****   __HAL_UNLOCK(hrtc);
 837              		.loc 1 563 3 is_stmt 1 view .LVU293
 838              		.loc 1 563 3 view .LVU294
 839 005e 0023     		movs	r3, #0
 840 0060 0377     		strb	r3, [r0, #28]
 564:Drivers/STM32F4xx_HAL_Driver/Src/stm32f4xx_hal_rtc_ex.c **** 
 565:Drivers/STM32F4xx_HAL_Driver/Src/stm32f4xx_hal_rtc_ex.c ****   return HAL_OK;
 841              		.loc 1 565 3 view .LVU295
 842              		.loc 1 565 10 is_stmt 0 view .LVU296
 843 0062 1846     		mov	r0, r3
 844              	.LVL69:
 566:Drivers/STM32F4xx_HAL_Driver/Src/stm32f4xx_hal_rtc_ex.c **** }
 845              		.loc 1 566 1 view .LVU297
 846 0064 30BC     		pop	{r4, r5}
 847              	.LCFI12:
 848              		.cfi_remember_state
 849              		.cfi_restore 5
 850              		.cfi_restore 4
 851              		.cfi_def_cfa_offset 0
 852 0066 7047     		bx	lr
 853              	.LVL70:
 854              	.L37:
 855              	.LCFI13:
 856              		.cfi_restore_state
 526:Drivers/STM32F4xx_HAL_Driver/Src/stm32f4xx_hal_rtc_ex.c ****   }
 857              		.loc 1 526 5 is_stmt 1 view .LVU298
 526:Drivers/STM32F4xx_HAL_Driver/Src/stm32f4xx_hal_rtc_ex.c ****   }
 858              		.loc 1 526 12 is_stmt 0 view .LVU299
 859 0068 43EA4203 		orr	r3, r3, r2, lsl #1
 860              	.LVL71:
 526:Drivers/STM32F4xx_HAL_Driver/Src/stm32f4xx_hal_rtc_ex.c ****   }
 861              		.loc 1 526 12 view .LVU300
 862 006c D9E7     		b	.L31
 863              	.LVL72:
 864              	.L32:
 865              	.LCFI14:
 866              		.cfi_def_cfa_offset 0
 867              		.cfi_restore 4
 868              		.cfi_restore 5
 511:Drivers/STM32F4xx_HAL_Driver/Src/stm32f4xx_hal_rtc_ex.c **** 
 869              		.loc 1 511 3 view .LVU301
 870 006e 0220     		movs	r0, #2
 871              	.LVL73:
 872              		.loc 1 566 1 view .LVU302
 873 0070 7047     		bx	lr
 874              	.L39:
 875 0072 00BF     		.align	2
 876              	.L38:
 877 0074 003C0140 		.word	1073822720
 878              		.cfi_endproc
 879              	.LFE240:
 881              		.section	.text.HAL_RTCEx_DeactivateTamper,"ax",%progbits
 882              		.align	1
 883              		.global	HAL_RTCEx_DeactivateTamper
ARM GAS  /tmp/ccTwdjOX.s 			page 27


 884              		.syntax unified
 885              		.thumb
 886              		.thumb_func
 887              		.fpu fpv4-sp-d16
 889              	HAL_RTCEx_DeactivateTamper:
 890              	.LVL74:
 891              	.LFB241:
 567:Drivers/STM32F4xx_HAL_Driver/Src/stm32f4xx_hal_rtc_ex.c **** 
 568:Drivers/STM32F4xx_HAL_Driver/Src/stm32f4xx_hal_rtc_ex.c **** /**
 569:Drivers/STM32F4xx_HAL_Driver/Src/stm32f4xx_hal_rtc_ex.c ****   * @brief  Deactivates Tamper.
 570:Drivers/STM32F4xx_HAL_Driver/Src/stm32f4xx_hal_rtc_ex.c ****   * @note   The tamper global interrupt bit will remain unchanged.
 571:Drivers/STM32F4xx_HAL_Driver/Src/stm32f4xx_hal_rtc_ex.c ****   * @param  hrtc pointer to a RTC_HandleTypeDef structure that contains
 572:Drivers/STM32F4xx_HAL_Driver/Src/stm32f4xx_hal_rtc_ex.c ****   *                the configuration information for RTC.
 573:Drivers/STM32F4xx_HAL_Driver/Src/stm32f4xx_hal_rtc_ex.c ****   * @param  Tamper Selected tamper pin.
 574:Drivers/STM32F4xx_HAL_Driver/Src/stm32f4xx_hal_rtc_ex.c ****   *          This parameter can be any combination of the following values:
 575:Drivers/STM32F4xx_HAL_Driver/Src/stm32f4xx_hal_rtc_ex.c ****   *            @arg RTC_TAMPER_1:  Tamper 1
 576:Drivers/STM32F4xx_HAL_Driver/Src/stm32f4xx_hal_rtc_ex.c ****   *            @arg RTC_TAMPER_2:  Tamper 2
 577:Drivers/STM32F4xx_HAL_Driver/Src/stm32f4xx_hal_rtc_ex.c ****   * @note   RTC_TAMPER_2 is not applicable to all devices.
 578:Drivers/STM32F4xx_HAL_Driver/Src/stm32f4xx_hal_rtc_ex.c ****   * @retval HAL status
 579:Drivers/STM32F4xx_HAL_Driver/Src/stm32f4xx_hal_rtc_ex.c ****   */
 580:Drivers/STM32F4xx_HAL_Driver/Src/stm32f4xx_hal_rtc_ex.c **** HAL_StatusTypeDef HAL_RTCEx_DeactivateTamper(RTC_HandleTypeDef *hrtc, uint32_t Tamper)
 581:Drivers/STM32F4xx_HAL_Driver/Src/stm32f4xx_hal_rtc_ex.c **** {
 892              		.loc 1 581 1 is_stmt 1 view -0
 893              		.cfi_startproc
 894              		@ args = 0, pretend = 0, frame = 0
 895              		@ frame_needed = 0, uses_anonymous_args = 0
 896              		@ link register save eliminated.
 582:Drivers/STM32F4xx_HAL_Driver/Src/stm32f4xx_hal_rtc_ex.c ****   assert_param(IS_RTC_TAMPER(Tamper));
 897              		.loc 1 582 3 view .LVU304
 583:Drivers/STM32F4xx_HAL_Driver/Src/stm32f4xx_hal_rtc_ex.c **** 
 584:Drivers/STM32F4xx_HAL_Driver/Src/stm32f4xx_hal_rtc_ex.c ****   /* Process Locked */
 585:Drivers/STM32F4xx_HAL_Driver/Src/stm32f4xx_hal_rtc_ex.c ****   __HAL_LOCK(hrtc);
 898              		.loc 1 585 3 view .LVU305
 899              		.loc 1 585 3 view .LVU306
 900 0000 027F     		ldrb	r2, [r0, #28]	@ zero_extendqisi2
 901 0002 012A     		cmp	r2, #1
 902 0004 10D0     		beq	.L42
 581:Drivers/STM32F4xx_HAL_Driver/Src/stm32f4xx_hal_rtc_ex.c ****   assert_param(IS_RTC_TAMPER(Tamper));
 903              		.loc 1 581 1 is_stmt 0 discriminator 2 view .LVU307
 904 0006 10B4     		push	{r4}
 905              	.LCFI15:
 906              		.cfi_def_cfa_offset 4
 907              		.cfi_offset 4, -4
 908              		.loc 1 585 3 is_stmt 1 discriminator 2 view .LVU308
 909 0008 0122     		movs	r2, #1
 910 000a 0277     		strb	r2, [r0, #28]
 586:Drivers/STM32F4xx_HAL_Driver/Src/stm32f4xx_hal_rtc_ex.c **** 
 587:Drivers/STM32F4xx_HAL_Driver/Src/stm32f4xx_hal_rtc_ex.c ****   hrtc->State = HAL_RTC_STATE_BUSY;
 911              		.loc 1 587 3 discriminator 2 view .LVU309
 912              		.loc 1 587 15 is_stmt 0 discriminator 2 view .LVU310
 913 000c 0223     		movs	r3, #2
 914 000e 4377     		strb	r3, [r0, #29]
 588:Drivers/STM32F4xx_HAL_Driver/Src/stm32f4xx_hal_rtc_ex.c **** 
 589:Drivers/STM32F4xx_HAL_Driver/Src/stm32f4xx_hal_rtc_ex.c ****   /* Disable the selected Tamper pin */
 590:Drivers/STM32F4xx_HAL_Driver/Src/stm32f4xx_hal_rtc_ex.c ****   hrtc->Instance->TAFCR &= (uint32_t)~Tamper;
 915              		.loc 1 590 3 is_stmt 1 discriminator 2 view .LVU311
 916              		.loc 1 590 7 is_stmt 0 discriminator 2 view .LVU312
ARM GAS  /tmp/ccTwdjOX.s 			page 28


 917 0010 0468     		ldr	r4, [r0]
 918              		.loc 1 590 25 discriminator 2 view .LVU313
 919 0012 236C     		ldr	r3, [r4, #64]
 920 0014 23EA0103 		bic	r3, r3, r1
 921 0018 2364     		str	r3, [r4, #64]
 591:Drivers/STM32F4xx_HAL_Driver/Src/stm32f4xx_hal_rtc_ex.c **** 
 592:Drivers/STM32F4xx_HAL_Driver/Src/stm32f4xx_hal_rtc_ex.c ****   hrtc->State = HAL_RTC_STATE_READY;
 922              		.loc 1 592 3 is_stmt 1 discriminator 2 view .LVU314
 923              		.loc 1 592 15 is_stmt 0 discriminator 2 view .LVU315
 924 001a 4277     		strb	r2, [r0, #29]
 593:Drivers/STM32F4xx_HAL_Driver/Src/stm32f4xx_hal_rtc_ex.c **** 
 594:Drivers/STM32F4xx_HAL_Driver/Src/stm32f4xx_hal_rtc_ex.c ****   /* Process Unlocked */
 595:Drivers/STM32F4xx_HAL_Driver/Src/stm32f4xx_hal_rtc_ex.c ****   __HAL_UNLOCK(hrtc);
 925              		.loc 1 595 3 is_stmt 1 discriminator 2 view .LVU316
 926              		.loc 1 595 3 discriminator 2 view .LVU317
 927 001c 0023     		movs	r3, #0
 928 001e 0377     		strb	r3, [r0, #28]
 596:Drivers/STM32F4xx_HAL_Driver/Src/stm32f4xx_hal_rtc_ex.c **** 
 597:Drivers/STM32F4xx_HAL_Driver/Src/stm32f4xx_hal_rtc_ex.c ****   return HAL_OK;
 929              		.loc 1 597 3 discriminator 2 view .LVU318
 930              		.loc 1 597 10 is_stmt 0 discriminator 2 view .LVU319
 931 0020 1846     		mov	r0, r3
 932              	.LVL75:
 598:Drivers/STM32F4xx_HAL_Driver/Src/stm32f4xx_hal_rtc_ex.c **** }
 933              		.loc 1 598 1 discriminator 2 view .LVU320
 934 0022 5DF8044B 		ldr	r4, [sp], #4
 935              	.LCFI16:
 936              		.cfi_restore 4
 937              		.cfi_def_cfa_offset 0
 938 0026 7047     		bx	lr
 939              	.LVL76:
 940              	.L42:
 585:Drivers/STM32F4xx_HAL_Driver/Src/stm32f4xx_hal_rtc_ex.c **** 
 941              		.loc 1 585 3 view .LVU321
 942 0028 0220     		movs	r0, #2
 943              	.LVL77:
 944              		.loc 1 598 1 view .LVU322
 945 002a 7047     		bx	lr
 946              		.cfi_endproc
 947              	.LFE241:
 949              		.section	.text.HAL_RTCEx_TimeStampEventCallback,"ax",%progbits
 950              		.align	1
 951              		.weak	HAL_RTCEx_TimeStampEventCallback
 952              		.syntax unified
 953              		.thumb
 954              		.thumb_func
 955              		.fpu fpv4-sp-d16
 957              	HAL_RTCEx_TimeStampEventCallback:
 958              	.LVL78:
 959              	.LFB243:
 599:Drivers/STM32F4xx_HAL_Driver/Src/stm32f4xx_hal_rtc_ex.c **** 
 600:Drivers/STM32F4xx_HAL_Driver/Src/stm32f4xx_hal_rtc_ex.c **** /**
 601:Drivers/STM32F4xx_HAL_Driver/Src/stm32f4xx_hal_rtc_ex.c ****   * @brief  Handles Timestamp and Tamper interrupt request.
 602:Drivers/STM32F4xx_HAL_Driver/Src/stm32f4xx_hal_rtc_ex.c ****   * @param  hrtc pointer to a RTC_HandleTypeDef structure that contains
 603:Drivers/STM32F4xx_HAL_Driver/Src/stm32f4xx_hal_rtc_ex.c ****   *                the configuration information for RTC.
 604:Drivers/STM32F4xx_HAL_Driver/Src/stm32f4xx_hal_rtc_ex.c ****   * @retval None
 605:Drivers/STM32F4xx_HAL_Driver/Src/stm32f4xx_hal_rtc_ex.c ****   */
ARM GAS  /tmp/ccTwdjOX.s 			page 29


 606:Drivers/STM32F4xx_HAL_Driver/Src/stm32f4xx_hal_rtc_ex.c **** void HAL_RTCEx_TamperTimeStampIRQHandler(RTC_HandleTypeDef *hrtc)
 607:Drivers/STM32F4xx_HAL_Driver/Src/stm32f4xx_hal_rtc_ex.c **** {
 608:Drivers/STM32F4xx_HAL_Driver/Src/stm32f4xx_hal_rtc_ex.c ****   /* Get the Timestamp interrupt source enable status */
 609:Drivers/STM32F4xx_HAL_Driver/Src/stm32f4xx_hal_rtc_ex.c ****   if (__HAL_RTC_TIMESTAMP_GET_IT_SOURCE(hrtc, RTC_IT_TS) != 0U)
 610:Drivers/STM32F4xx_HAL_Driver/Src/stm32f4xx_hal_rtc_ex.c ****   {
 611:Drivers/STM32F4xx_HAL_Driver/Src/stm32f4xx_hal_rtc_ex.c ****     /* Get the pending status of the Timestamp Interrupt */
 612:Drivers/STM32F4xx_HAL_Driver/Src/stm32f4xx_hal_rtc_ex.c ****     if (__HAL_RTC_TIMESTAMP_GET_FLAG(hrtc, RTC_FLAG_TSF) != 0U)
 613:Drivers/STM32F4xx_HAL_Driver/Src/stm32f4xx_hal_rtc_ex.c ****     {
 614:Drivers/STM32F4xx_HAL_Driver/Src/stm32f4xx_hal_rtc_ex.c ****       /* Timestamp callback */
 615:Drivers/STM32F4xx_HAL_Driver/Src/stm32f4xx_hal_rtc_ex.c **** #if (USE_HAL_RTC_REGISTER_CALLBACKS == 1)
 616:Drivers/STM32F4xx_HAL_Driver/Src/stm32f4xx_hal_rtc_ex.c ****       hrtc->TimeStampEventCallback(hrtc);
 617:Drivers/STM32F4xx_HAL_Driver/Src/stm32f4xx_hal_rtc_ex.c **** #else
 618:Drivers/STM32F4xx_HAL_Driver/Src/stm32f4xx_hal_rtc_ex.c ****       HAL_RTCEx_TimeStampEventCallback(hrtc);
 619:Drivers/STM32F4xx_HAL_Driver/Src/stm32f4xx_hal_rtc_ex.c **** #endif /* USE_HAL_RTC_REGISTER_CALLBACKS */
 620:Drivers/STM32F4xx_HAL_Driver/Src/stm32f4xx_hal_rtc_ex.c **** 
 621:Drivers/STM32F4xx_HAL_Driver/Src/stm32f4xx_hal_rtc_ex.c ****       /* Clear the Timestamp interrupt pending bit */
 622:Drivers/STM32F4xx_HAL_Driver/Src/stm32f4xx_hal_rtc_ex.c ****       __HAL_RTC_TIMESTAMP_CLEAR_FLAG(hrtc, RTC_FLAG_TSF);
 623:Drivers/STM32F4xx_HAL_Driver/Src/stm32f4xx_hal_rtc_ex.c ****     }
 624:Drivers/STM32F4xx_HAL_Driver/Src/stm32f4xx_hal_rtc_ex.c ****   }
 625:Drivers/STM32F4xx_HAL_Driver/Src/stm32f4xx_hal_rtc_ex.c **** 
 626:Drivers/STM32F4xx_HAL_Driver/Src/stm32f4xx_hal_rtc_ex.c ****   /* Get the Tamper 1 interrupt source enable status */
 627:Drivers/STM32F4xx_HAL_Driver/Src/stm32f4xx_hal_rtc_ex.c ****   if (__HAL_RTC_TAMPER_GET_IT_SOURCE(hrtc, RTC_IT_TAMP) != 0U)
 628:Drivers/STM32F4xx_HAL_Driver/Src/stm32f4xx_hal_rtc_ex.c ****   {
 629:Drivers/STM32F4xx_HAL_Driver/Src/stm32f4xx_hal_rtc_ex.c ****     /* Get the pending status of the Tamper 1 Interrupt */
 630:Drivers/STM32F4xx_HAL_Driver/Src/stm32f4xx_hal_rtc_ex.c ****     if (__HAL_RTC_TAMPER_GET_FLAG(hrtc, RTC_FLAG_TAMP1F) != 0U)
 631:Drivers/STM32F4xx_HAL_Driver/Src/stm32f4xx_hal_rtc_ex.c ****     {
 632:Drivers/STM32F4xx_HAL_Driver/Src/stm32f4xx_hal_rtc_ex.c ****       /* Tamper callback */
 633:Drivers/STM32F4xx_HAL_Driver/Src/stm32f4xx_hal_rtc_ex.c **** #if (USE_HAL_RTC_REGISTER_CALLBACKS == 1)
 634:Drivers/STM32F4xx_HAL_Driver/Src/stm32f4xx_hal_rtc_ex.c ****       hrtc->Tamper1EventCallback(hrtc);
 635:Drivers/STM32F4xx_HAL_Driver/Src/stm32f4xx_hal_rtc_ex.c **** #else
 636:Drivers/STM32F4xx_HAL_Driver/Src/stm32f4xx_hal_rtc_ex.c ****       HAL_RTCEx_Tamper1EventCallback(hrtc);
 637:Drivers/STM32F4xx_HAL_Driver/Src/stm32f4xx_hal_rtc_ex.c **** #endif /* USE_HAL_RTC_REGISTER_CALLBACKS */
 638:Drivers/STM32F4xx_HAL_Driver/Src/stm32f4xx_hal_rtc_ex.c **** 
 639:Drivers/STM32F4xx_HAL_Driver/Src/stm32f4xx_hal_rtc_ex.c ****       /* Clear the Tamper interrupt pending bit */
 640:Drivers/STM32F4xx_HAL_Driver/Src/stm32f4xx_hal_rtc_ex.c ****       __HAL_RTC_TAMPER_CLEAR_FLAG(hrtc, RTC_FLAG_TAMP1F);
 641:Drivers/STM32F4xx_HAL_Driver/Src/stm32f4xx_hal_rtc_ex.c ****     }
 642:Drivers/STM32F4xx_HAL_Driver/Src/stm32f4xx_hal_rtc_ex.c ****   }
 643:Drivers/STM32F4xx_HAL_Driver/Src/stm32f4xx_hal_rtc_ex.c **** 
 644:Drivers/STM32F4xx_HAL_Driver/Src/stm32f4xx_hal_rtc_ex.c **** #if defined(RTC_TAMPER2_SUPPORT)
 645:Drivers/STM32F4xx_HAL_Driver/Src/stm32f4xx_hal_rtc_ex.c ****   /* Get the Tamper 2 interrupt source enable status */
 646:Drivers/STM32F4xx_HAL_Driver/Src/stm32f4xx_hal_rtc_ex.c ****   if (__HAL_RTC_TAMPER_GET_IT_SOURCE(hrtc, RTC_IT_TAMP) != 0U)
 647:Drivers/STM32F4xx_HAL_Driver/Src/stm32f4xx_hal_rtc_ex.c ****   {
 648:Drivers/STM32F4xx_HAL_Driver/Src/stm32f4xx_hal_rtc_ex.c ****     /* Get the pending status of the Tamper 2 Interrupt */
 649:Drivers/STM32F4xx_HAL_Driver/Src/stm32f4xx_hal_rtc_ex.c ****     if (__HAL_RTC_TAMPER_GET_FLAG(hrtc, RTC_FLAG_TAMP2F) != 0U)
 650:Drivers/STM32F4xx_HAL_Driver/Src/stm32f4xx_hal_rtc_ex.c ****     {
 651:Drivers/STM32F4xx_HAL_Driver/Src/stm32f4xx_hal_rtc_ex.c ****       /* Tamper callback */
 652:Drivers/STM32F4xx_HAL_Driver/Src/stm32f4xx_hal_rtc_ex.c **** #if (USE_HAL_RTC_REGISTER_CALLBACKS == 1)
 653:Drivers/STM32F4xx_HAL_Driver/Src/stm32f4xx_hal_rtc_ex.c ****       hrtc->Tamper2EventCallback(hrtc);
 654:Drivers/STM32F4xx_HAL_Driver/Src/stm32f4xx_hal_rtc_ex.c **** #else
 655:Drivers/STM32F4xx_HAL_Driver/Src/stm32f4xx_hal_rtc_ex.c ****       HAL_RTCEx_Tamper2EventCallback(hrtc);
 656:Drivers/STM32F4xx_HAL_Driver/Src/stm32f4xx_hal_rtc_ex.c **** #endif /* USE_HAL_RTC_REGISTER_CALLBACKS */
 657:Drivers/STM32F4xx_HAL_Driver/Src/stm32f4xx_hal_rtc_ex.c **** 
 658:Drivers/STM32F4xx_HAL_Driver/Src/stm32f4xx_hal_rtc_ex.c ****       /* Clear the Tamper interrupt pending bit */
 659:Drivers/STM32F4xx_HAL_Driver/Src/stm32f4xx_hal_rtc_ex.c ****       __HAL_RTC_TAMPER_CLEAR_FLAG(hrtc, RTC_FLAG_TAMP2F);
 660:Drivers/STM32F4xx_HAL_Driver/Src/stm32f4xx_hal_rtc_ex.c ****     }
 661:Drivers/STM32F4xx_HAL_Driver/Src/stm32f4xx_hal_rtc_ex.c ****   }
 662:Drivers/STM32F4xx_HAL_Driver/Src/stm32f4xx_hal_rtc_ex.c **** #endif /* RTC_TAMPER2_SUPPORT */
ARM GAS  /tmp/ccTwdjOX.s 			page 30


 663:Drivers/STM32F4xx_HAL_Driver/Src/stm32f4xx_hal_rtc_ex.c **** 
 664:Drivers/STM32F4xx_HAL_Driver/Src/stm32f4xx_hal_rtc_ex.c ****   /* Clear the EXTI's Flag for RTC Timestamp and Tamper */
 665:Drivers/STM32F4xx_HAL_Driver/Src/stm32f4xx_hal_rtc_ex.c ****   __HAL_RTC_TAMPER_TIMESTAMP_EXTI_CLEAR_FLAG();
 666:Drivers/STM32F4xx_HAL_Driver/Src/stm32f4xx_hal_rtc_ex.c **** 
 667:Drivers/STM32F4xx_HAL_Driver/Src/stm32f4xx_hal_rtc_ex.c ****   /* Change RTC state */
 668:Drivers/STM32F4xx_HAL_Driver/Src/stm32f4xx_hal_rtc_ex.c ****   hrtc->State = HAL_RTC_STATE_READY;
 669:Drivers/STM32F4xx_HAL_Driver/Src/stm32f4xx_hal_rtc_ex.c **** }
 670:Drivers/STM32F4xx_HAL_Driver/Src/stm32f4xx_hal_rtc_ex.c **** 
 671:Drivers/STM32F4xx_HAL_Driver/Src/stm32f4xx_hal_rtc_ex.c **** /**
 672:Drivers/STM32F4xx_HAL_Driver/Src/stm32f4xx_hal_rtc_ex.c ****   * @brief  Timestamp callback.
 673:Drivers/STM32F4xx_HAL_Driver/Src/stm32f4xx_hal_rtc_ex.c ****   * @param  hrtc pointer to a RTC_HandleTypeDef structure that contains
 674:Drivers/STM32F4xx_HAL_Driver/Src/stm32f4xx_hal_rtc_ex.c ****   *                the configuration information for RTC.
 675:Drivers/STM32F4xx_HAL_Driver/Src/stm32f4xx_hal_rtc_ex.c ****   * @retval None
 676:Drivers/STM32F4xx_HAL_Driver/Src/stm32f4xx_hal_rtc_ex.c ****   */
 677:Drivers/STM32F4xx_HAL_Driver/Src/stm32f4xx_hal_rtc_ex.c **** __weak void HAL_RTCEx_TimeStampEventCallback(RTC_HandleTypeDef *hrtc)
 678:Drivers/STM32F4xx_HAL_Driver/Src/stm32f4xx_hal_rtc_ex.c **** {
 960              		.loc 1 678 1 is_stmt 1 view -0
 961              		.cfi_startproc
 962              		@ args = 0, pretend = 0, frame = 0
 963              		@ frame_needed = 0, uses_anonymous_args = 0
 964              		@ link register save eliminated.
 679:Drivers/STM32F4xx_HAL_Driver/Src/stm32f4xx_hal_rtc_ex.c ****   /* Prevent unused argument(s) compilation warning */
 680:Drivers/STM32F4xx_HAL_Driver/Src/stm32f4xx_hal_rtc_ex.c ****   UNUSED(hrtc);
 965              		.loc 1 680 3 view .LVU324
 681:Drivers/STM32F4xx_HAL_Driver/Src/stm32f4xx_hal_rtc_ex.c **** 
 682:Drivers/STM32F4xx_HAL_Driver/Src/stm32f4xx_hal_rtc_ex.c ****   /* NOTE: This function should not be modified, when the callback is needed,
 683:Drivers/STM32F4xx_HAL_Driver/Src/stm32f4xx_hal_rtc_ex.c ****            the HAL_RTCEx_TimeStampEventCallback could be implemented in the user file
 684:Drivers/STM32F4xx_HAL_Driver/Src/stm32f4xx_hal_rtc_ex.c ****   */
 685:Drivers/STM32F4xx_HAL_Driver/Src/stm32f4xx_hal_rtc_ex.c **** }
 966              		.loc 1 685 1 is_stmt 0 view .LVU325
 967 0000 7047     		bx	lr
 968              		.cfi_endproc
 969              	.LFE243:
 971              		.section	.text.HAL_RTCEx_Tamper1EventCallback,"ax",%progbits
 972              		.align	1
 973              		.weak	HAL_RTCEx_Tamper1EventCallback
 974              		.syntax unified
 975              		.thumb
 976              		.thumb_func
 977              		.fpu fpv4-sp-d16
 979              	HAL_RTCEx_Tamper1EventCallback:
 980              	.LVL79:
 981              	.LFB244:
 686:Drivers/STM32F4xx_HAL_Driver/Src/stm32f4xx_hal_rtc_ex.c **** 
 687:Drivers/STM32F4xx_HAL_Driver/Src/stm32f4xx_hal_rtc_ex.c **** /**
 688:Drivers/STM32F4xx_HAL_Driver/Src/stm32f4xx_hal_rtc_ex.c ****   * @brief  Tamper 1 callback.
 689:Drivers/STM32F4xx_HAL_Driver/Src/stm32f4xx_hal_rtc_ex.c ****   * @param  hrtc pointer to a RTC_HandleTypeDef structure that contains
 690:Drivers/STM32F4xx_HAL_Driver/Src/stm32f4xx_hal_rtc_ex.c ****   *                the configuration information for RTC.
 691:Drivers/STM32F4xx_HAL_Driver/Src/stm32f4xx_hal_rtc_ex.c ****   * @retval None
 692:Drivers/STM32F4xx_HAL_Driver/Src/stm32f4xx_hal_rtc_ex.c ****   */
 693:Drivers/STM32F4xx_HAL_Driver/Src/stm32f4xx_hal_rtc_ex.c **** __weak void HAL_RTCEx_Tamper1EventCallback(RTC_HandleTypeDef *hrtc)
 694:Drivers/STM32F4xx_HAL_Driver/Src/stm32f4xx_hal_rtc_ex.c **** {
 982              		.loc 1 694 1 is_stmt 1 view -0
 983              		.cfi_startproc
 984              		@ args = 0, pretend = 0, frame = 0
 985              		@ frame_needed = 0, uses_anonymous_args = 0
 986              		@ link register save eliminated.
ARM GAS  /tmp/ccTwdjOX.s 			page 31


 695:Drivers/STM32F4xx_HAL_Driver/Src/stm32f4xx_hal_rtc_ex.c ****   /* Prevent unused argument(s) compilation warning */
 696:Drivers/STM32F4xx_HAL_Driver/Src/stm32f4xx_hal_rtc_ex.c ****   UNUSED(hrtc);
 987              		.loc 1 696 3 view .LVU327
 697:Drivers/STM32F4xx_HAL_Driver/Src/stm32f4xx_hal_rtc_ex.c **** 
 698:Drivers/STM32F4xx_HAL_Driver/Src/stm32f4xx_hal_rtc_ex.c ****   /* NOTE: This function should not be modified, when the callback is needed,
 699:Drivers/STM32F4xx_HAL_Driver/Src/stm32f4xx_hal_rtc_ex.c ****            the HAL_RTCEx_Tamper1EventCallback could be implemented in the user file
 700:Drivers/STM32F4xx_HAL_Driver/Src/stm32f4xx_hal_rtc_ex.c ****    */
 701:Drivers/STM32F4xx_HAL_Driver/Src/stm32f4xx_hal_rtc_ex.c **** }
 988              		.loc 1 701 1 is_stmt 0 view .LVU328
 989 0000 7047     		bx	lr
 990              		.cfi_endproc
 991              	.LFE244:
 993              		.section	.text.HAL_RTCEx_Tamper2EventCallback,"ax",%progbits
 994              		.align	1
 995              		.weak	HAL_RTCEx_Tamper2EventCallback
 996              		.syntax unified
 997              		.thumb
 998              		.thumb_func
 999              		.fpu fpv4-sp-d16
 1001              	HAL_RTCEx_Tamper2EventCallback:
 1002              	.LVL80:
 1003              	.LFB245:
 702:Drivers/STM32F4xx_HAL_Driver/Src/stm32f4xx_hal_rtc_ex.c **** 
 703:Drivers/STM32F4xx_HAL_Driver/Src/stm32f4xx_hal_rtc_ex.c **** #if defined(RTC_TAMPER2_SUPPORT)
 704:Drivers/STM32F4xx_HAL_Driver/Src/stm32f4xx_hal_rtc_ex.c **** /**
 705:Drivers/STM32F4xx_HAL_Driver/Src/stm32f4xx_hal_rtc_ex.c ****   * @brief  Tamper 2 callback.
 706:Drivers/STM32F4xx_HAL_Driver/Src/stm32f4xx_hal_rtc_ex.c ****   * @param  hrtc pointer to a RTC_HandleTypeDef structure that contains
 707:Drivers/STM32F4xx_HAL_Driver/Src/stm32f4xx_hal_rtc_ex.c ****   *                the configuration information for RTC.
 708:Drivers/STM32F4xx_HAL_Driver/Src/stm32f4xx_hal_rtc_ex.c ****   * @retval None
 709:Drivers/STM32F4xx_HAL_Driver/Src/stm32f4xx_hal_rtc_ex.c ****   */
 710:Drivers/STM32F4xx_HAL_Driver/Src/stm32f4xx_hal_rtc_ex.c **** __weak void HAL_RTCEx_Tamper2EventCallback(RTC_HandleTypeDef *hrtc)
 711:Drivers/STM32F4xx_HAL_Driver/Src/stm32f4xx_hal_rtc_ex.c **** {
 1004              		.loc 1 711 1 is_stmt 1 view -0
 1005              		.cfi_startproc
 1006              		@ args = 0, pretend = 0, frame = 0
 1007              		@ frame_needed = 0, uses_anonymous_args = 0
 1008              		@ link register save eliminated.
 712:Drivers/STM32F4xx_HAL_Driver/Src/stm32f4xx_hal_rtc_ex.c ****   /* Prevent unused argument(s) compilation warning */
 713:Drivers/STM32F4xx_HAL_Driver/Src/stm32f4xx_hal_rtc_ex.c ****   UNUSED(hrtc);
 1009              		.loc 1 713 3 view .LVU330
 714:Drivers/STM32F4xx_HAL_Driver/Src/stm32f4xx_hal_rtc_ex.c **** 
 715:Drivers/STM32F4xx_HAL_Driver/Src/stm32f4xx_hal_rtc_ex.c ****   /* NOTE: This function should not be modified, when the callback is needed,
 716:Drivers/STM32F4xx_HAL_Driver/Src/stm32f4xx_hal_rtc_ex.c ****            the HAL_RTCEx_Tamper2EventCallback could be implemented in the user file
 717:Drivers/STM32F4xx_HAL_Driver/Src/stm32f4xx_hal_rtc_ex.c ****    */
 718:Drivers/STM32F4xx_HAL_Driver/Src/stm32f4xx_hal_rtc_ex.c **** }
 1010              		.loc 1 718 1 is_stmt 0 view .LVU331
 1011 0000 7047     		bx	lr
 1012              		.cfi_endproc
 1013              	.LFE245:
 1015              		.section	.text.HAL_RTCEx_TamperTimeStampIRQHandler,"ax",%progbits
 1016              		.align	1
 1017              		.global	HAL_RTCEx_TamperTimeStampIRQHandler
 1018              		.syntax unified
 1019              		.thumb
 1020              		.thumb_func
 1021              		.fpu fpv4-sp-d16
 1023              	HAL_RTCEx_TamperTimeStampIRQHandler:
ARM GAS  /tmp/ccTwdjOX.s 			page 32


 1024              	.LVL81:
 1025              	.LFB242:
 607:Drivers/STM32F4xx_HAL_Driver/Src/stm32f4xx_hal_rtc_ex.c ****   /* Get the Timestamp interrupt source enable status */
 1026              		.loc 1 607 1 is_stmt 1 view -0
 1027              		.cfi_startproc
 1028              		@ args = 0, pretend = 0, frame = 0
 1029              		@ frame_needed = 0, uses_anonymous_args = 0
 607:Drivers/STM32F4xx_HAL_Driver/Src/stm32f4xx_hal_rtc_ex.c ****   /* Get the Timestamp interrupt source enable status */
 1030              		.loc 1 607 1 is_stmt 0 view .LVU333
 1031 0000 10B5     		push	{r4, lr}
 1032              	.LCFI17:
 1033              		.cfi_def_cfa_offset 8
 1034              		.cfi_offset 4, -8
 1035              		.cfi_offset 14, -4
 1036 0002 0446     		mov	r4, r0
 609:Drivers/STM32F4xx_HAL_Driver/Src/stm32f4xx_hal_rtc_ex.c ****   {
 1037              		.loc 1 609 3 is_stmt 1 view .LVU334
 609:Drivers/STM32F4xx_HAL_Driver/Src/stm32f4xx_hal_rtc_ex.c ****   {
 1038              		.loc 1 609 7 is_stmt 0 view .LVU335
 1039 0004 0368     		ldr	r3, [r0]
 1040 0006 9A68     		ldr	r2, [r3, #8]
 609:Drivers/STM32F4xx_HAL_Driver/Src/stm32f4xx_hal_rtc_ex.c ****   {
 1041              		.loc 1 609 6 view .LVU336
 1042 0008 12F4004F 		tst	r2, #32768
 1043 000c 03D0     		beq	.L51
 612:Drivers/STM32F4xx_HAL_Driver/Src/stm32f4xx_hal_rtc_ex.c ****     {
 1044              		.loc 1 612 5 is_stmt 1 view .LVU337
 612:Drivers/STM32F4xx_HAL_Driver/Src/stm32f4xx_hal_rtc_ex.c ****     {
 1045              		.loc 1 612 9 is_stmt 0 view .LVU338
 1046 000e DB68     		ldr	r3, [r3, #12]
 612:Drivers/STM32F4xx_HAL_Driver/Src/stm32f4xx_hal_rtc_ex.c ****     {
 1047              		.loc 1 612 8 view .LVU339
 1048 0010 13F4006F 		tst	r3, #2048
 1049 0014 18D1     		bne	.L55
 1050              	.LVL82:
 1051              	.L51:
 627:Drivers/STM32F4xx_HAL_Driver/Src/stm32f4xx_hal_rtc_ex.c ****   {
 1052              		.loc 1 627 3 is_stmt 1 view .LVU340
 627:Drivers/STM32F4xx_HAL_Driver/Src/stm32f4xx_hal_rtc_ex.c ****   {
 1053              		.loc 1 627 7 is_stmt 0 view .LVU341
 1054 0016 2368     		ldr	r3, [r4]
 1055 0018 1A6C     		ldr	r2, [r3, #64]
 627:Drivers/STM32F4xx_HAL_Driver/Src/stm32f4xx_hal_rtc_ex.c ****   {
 1056              		.loc 1 627 6 view .LVU342
 1057 001a 12F0040F 		tst	r2, #4
 1058 001e 03D0     		beq	.L52
 630:Drivers/STM32F4xx_HAL_Driver/Src/stm32f4xx_hal_rtc_ex.c ****     {
 1059              		.loc 1 630 5 is_stmt 1 view .LVU343
 630:Drivers/STM32F4xx_HAL_Driver/Src/stm32f4xx_hal_rtc_ex.c ****     {
 1060              		.loc 1 630 9 is_stmt 0 view .LVU344
 1061 0020 DB68     		ldr	r3, [r3, #12]
 630:Drivers/STM32F4xx_HAL_Driver/Src/stm32f4xx_hal_rtc_ex.c ****     {
 1062              		.loc 1 630 8 view .LVU345
 1063 0022 13F4005F 		tst	r3, #8192
 1064 0026 18D1     		bne	.L56
 1065              	.L52:
 646:Drivers/STM32F4xx_HAL_Driver/Src/stm32f4xx_hal_rtc_ex.c ****   {
ARM GAS  /tmp/ccTwdjOX.s 			page 33


 1066              		.loc 1 646 3 is_stmt 1 view .LVU346
 646:Drivers/STM32F4xx_HAL_Driver/Src/stm32f4xx_hal_rtc_ex.c ****   {
 1067              		.loc 1 646 7 is_stmt 0 view .LVU347
 1068 0028 2368     		ldr	r3, [r4]
 1069 002a 1A6C     		ldr	r2, [r3, #64]
 646:Drivers/STM32F4xx_HAL_Driver/Src/stm32f4xx_hal_rtc_ex.c ****   {
 1070              		.loc 1 646 6 view .LVU348
 1071 002c 12F0040F 		tst	r2, #4
 1072 0030 03D0     		beq	.L53
 649:Drivers/STM32F4xx_HAL_Driver/Src/stm32f4xx_hal_rtc_ex.c ****     {
 1073              		.loc 1 649 5 is_stmt 1 view .LVU349
 649:Drivers/STM32F4xx_HAL_Driver/Src/stm32f4xx_hal_rtc_ex.c ****     {
 1074              		.loc 1 649 9 is_stmt 0 view .LVU350
 1075 0032 DB68     		ldr	r3, [r3, #12]
 649:Drivers/STM32F4xx_HAL_Driver/Src/stm32f4xx_hal_rtc_ex.c ****     {
 1076              		.loc 1 649 8 view .LVU351
 1077 0034 13F4804F 		tst	r3, #16384
 1078 0038 19D1     		bne	.L57
 1079              	.L53:
 665:Drivers/STM32F4xx_HAL_Driver/Src/stm32f4xx_hal_rtc_ex.c **** 
 1080              		.loc 1 665 3 is_stmt 1 view .LVU352
 1081 003a 124B     		ldr	r3, .L58
 1082 003c 4FF40012 		mov	r2, #2097152
 1083 0040 5A61     		str	r2, [r3, #20]
 668:Drivers/STM32F4xx_HAL_Driver/Src/stm32f4xx_hal_rtc_ex.c **** }
 1084              		.loc 1 668 3 view .LVU353
 668:Drivers/STM32F4xx_HAL_Driver/Src/stm32f4xx_hal_rtc_ex.c **** }
 1085              		.loc 1 668 15 is_stmt 0 view .LVU354
 1086 0042 0123     		movs	r3, #1
 1087 0044 6377     		strb	r3, [r4, #29]
 669:Drivers/STM32F4xx_HAL_Driver/Src/stm32f4xx_hal_rtc_ex.c **** 
 1088              		.loc 1 669 1 view .LVU355
 1089 0046 10BD     		pop	{r4, pc}
 1090              	.LVL83:
 1091              	.L55:
 618:Drivers/STM32F4xx_HAL_Driver/Src/stm32f4xx_hal_rtc_ex.c **** #endif /* USE_HAL_RTC_REGISTER_CALLBACKS */
 1092              		.loc 1 618 7 is_stmt 1 view .LVU356
 1093 0048 FFF7FEFF 		bl	HAL_RTCEx_TimeStampEventCallback
 1094              	.LVL84:
 622:Drivers/STM32F4xx_HAL_Driver/Src/stm32f4xx_hal_rtc_ex.c ****     }
 1095              		.loc 1 622 7 view .LVU357
 1096 004c 2268     		ldr	r2, [r4]
 1097 004e D368     		ldr	r3, [r2, #12]
 1098 0050 DBB2     		uxtb	r3, r3
 1099 0052 63F40863 		orn	r3, r3, #2176
 1100 0056 D360     		str	r3, [r2, #12]
 1101 0058 DDE7     		b	.L51
 1102              	.L56:
 636:Drivers/STM32F4xx_HAL_Driver/Src/stm32f4xx_hal_rtc_ex.c **** #endif /* USE_HAL_RTC_REGISTER_CALLBACKS */
 1103              		.loc 1 636 7 view .LVU358
 1104 005a 2046     		mov	r0, r4
 1105 005c FFF7FEFF 		bl	HAL_RTCEx_Tamper1EventCallback
 1106              	.LVL85:
 640:Drivers/STM32F4xx_HAL_Driver/Src/stm32f4xx_hal_rtc_ex.c ****     }
 1107              		.loc 1 640 7 view .LVU359
 1108 0060 2268     		ldr	r2, [r4]
 1109 0062 D368     		ldr	r3, [r2, #12]
ARM GAS  /tmp/ccTwdjOX.s 			page 34


 1110 0064 DBB2     		uxtb	r3, r3
 1111 0066 63F40253 		orn	r3, r3, #8320
 1112 006a D360     		str	r3, [r2, #12]
 1113 006c DCE7     		b	.L52
 1114              	.L57:
 655:Drivers/STM32F4xx_HAL_Driver/Src/stm32f4xx_hal_rtc_ex.c **** #endif /* USE_HAL_RTC_REGISTER_CALLBACKS */
 1115              		.loc 1 655 7 view .LVU360
 1116 006e 2046     		mov	r0, r4
 1117 0070 FFF7FEFF 		bl	HAL_RTCEx_Tamper2EventCallback
 1118              	.LVL86:
 659:Drivers/STM32F4xx_HAL_Driver/Src/stm32f4xx_hal_rtc_ex.c ****     }
 1119              		.loc 1 659 7 view .LVU361
 1120 0074 2268     		ldr	r2, [r4]
 1121 0076 D368     		ldr	r3, [r2, #12]
 1122 0078 DBB2     		uxtb	r3, r3
 1123 007a 63F48143 		orn	r3, r3, #16512
 1124 007e D360     		str	r3, [r2, #12]
 1125 0080 DBE7     		b	.L53
 1126              	.L59:
 1127 0082 00BF     		.align	2
 1128              	.L58:
 1129 0084 003C0140 		.word	1073822720
 1130              		.cfi_endproc
 1131              	.LFE242:
 1133              		.section	.text.HAL_RTCEx_PollForTimeStampEvent,"ax",%progbits
 1134              		.align	1
 1135              		.global	HAL_RTCEx_PollForTimeStampEvent
 1136              		.syntax unified
 1137              		.thumb
 1138              		.thumb_func
 1139              		.fpu fpv4-sp-d16
 1141              	HAL_RTCEx_PollForTimeStampEvent:
 1142              	.LVL87:
 1143              	.LFB246:
 719:Drivers/STM32F4xx_HAL_Driver/Src/stm32f4xx_hal_rtc_ex.c **** #endif /* RTC_TAMPER2_SUPPORT */
 720:Drivers/STM32F4xx_HAL_Driver/Src/stm32f4xx_hal_rtc_ex.c **** 
 721:Drivers/STM32F4xx_HAL_Driver/Src/stm32f4xx_hal_rtc_ex.c **** /**
 722:Drivers/STM32F4xx_HAL_Driver/Src/stm32f4xx_hal_rtc_ex.c ****   * @brief  Handles Timestamp polling request.
 723:Drivers/STM32F4xx_HAL_Driver/Src/stm32f4xx_hal_rtc_ex.c ****   * @param  hrtc pointer to a RTC_HandleTypeDef structure that contains
 724:Drivers/STM32F4xx_HAL_Driver/Src/stm32f4xx_hal_rtc_ex.c ****   *                the configuration information for RTC.
 725:Drivers/STM32F4xx_HAL_Driver/Src/stm32f4xx_hal_rtc_ex.c ****   * @param  Timeout Timeout duration
 726:Drivers/STM32F4xx_HAL_Driver/Src/stm32f4xx_hal_rtc_ex.c ****   * @retval HAL status
 727:Drivers/STM32F4xx_HAL_Driver/Src/stm32f4xx_hal_rtc_ex.c ****   */
 728:Drivers/STM32F4xx_HAL_Driver/Src/stm32f4xx_hal_rtc_ex.c **** HAL_StatusTypeDef HAL_RTCEx_PollForTimeStampEvent(RTC_HandleTypeDef *hrtc, uint32_t Timeout)
 729:Drivers/STM32F4xx_HAL_Driver/Src/stm32f4xx_hal_rtc_ex.c **** {
 1144              		.loc 1 729 1 view -0
 1145              		.cfi_startproc
 1146              		@ args = 0, pretend = 0, frame = 0
 1147              		@ frame_needed = 0, uses_anonymous_args = 0
 1148              		.loc 1 729 1 is_stmt 0 view .LVU363
 1149 0000 70B5     		push	{r4, r5, r6, lr}
 1150              	.LCFI18:
 1151              		.cfi_def_cfa_offset 16
 1152              		.cfi_offset 4, -16
 1153              		.cfi_offset 5, -12
 1154              		.cfi_offset 6, -8
 1155              		.cfi_offset 14, -4
ARM GAS  /tmp/ccTwdjOX.s 			page 35


 1156 0002 0546     		mov	r5, r0
 1157 0004 0C46     		mov	r4, r1
 730:Drivers/STM32F4xx_HAL_Driver/Src/stm32f4xx_hal_rtc_ex.c ****   uint32_t tickstart = 0U;
 1158              		.loc 1 730 3 is_stmt 1 view .LVU364
 1159              	.LVL88:
 731:Drivers/STM32F4xx_HAL_Driver/Src/stm32f4xx_hal_rtc_ex.c **** 
 732:Drivers/STM32F4xx_HAL_Driver/Src/stm32f4xx_hal_rtc_ex.c ****   /* Get tick */
 733:Drivers/STM32F4xx_HAL_Driver/Src/stm32f4xx_hal_rtc_ex.c ****   tickstart = HAL_GetTick();
 1160              		.loc 1 733 3 view .LVU365
 1161              		.loc 1 733 15 is_stmt 0 view .LVU366
 1162 0006 FFF7FEFF 		bl	HAL_GetTick
 1163              	.LVL89:
 1164              		.loc 1 733 15 view .LVU367
 1165 000a 0646     		mov	r6, r0
 1166              	.LVL90:
 734:Drivers/STM32F4xx_HAL_Driver/Src/stm32f4xx_hal_rtc_ex.c **** 
 735:Drivers/STM32F4xx_HAL_Driver/Src/stm32f4xx_hal_rtc_ex.c ****   while (__HAL_RTC_TIMESTAMP_GET_FLAG(hrtc, RTC_FLAG_TSF) == 0U)
 1167              		.loc 1 735 3 is_stmt 1 view .LVU368
 1168              		.loc 1 735 9 is_stmt 0 view .LVU369
 1169 000c 04E0     		b	.L61
 1170              	.LVL91:
 1171              	.L62:
 736:Drivers/STM32F4xx_HAL_Driver/Src/stm32f4xx_hal_rtc_ex.c ****   {
 737:Drivers/STM32F4xx_HAL_Driver/Src/stm32f4xx_hal_rtc_ex.c ****     if (Timeout != HAL_MAX_DELAY)
 738:Drivers/STM32F4xx_HAL_Driver/Src/stm32f4xx_hal_rtc_ex.c ****     {
 739:Drivers/STM32F4xx_HAL_Driver/Src/stm32f4xx_hal_rtc_ex.c ****       if ((Timeout == 0U) || ((HAL_GetTick() - tickstart) > Timeout))
 740:Drivers/STM32F4xx_HAL_Driver/Src/stm32f4xx_hal_rtc_ex.c ****       {
 741:Drivers/STM32F4xx_HAL_Driver/Src/stm32f4xx_hal_rtc_ex.c ****         hrtc->State = HAL_RTC_STATE_TIMEOUT;
 742:Drivers/STM32F4xx_HAL_Driver/Src/stm32f4xx_hal_rtc_ex.c ****         return HAL_TIMEOUT;
 743:Drivers/STM32F4xx_HAL_Driver/Src/stm32f4xx_hal_rtc_ex.c ****       }
 744:Drivers/STM32F4xx_HAL_Driver/Src/stm32f4xx_hal_rtc_ex.c ****     }
 745:Drivers/STM32F4xx_HAL_Driver/Src/stm32f4xx_hal_rtc_ex.c **** 
 746:Drivers/STM32F4xx_HAL_Driver/Src/stm32f4xx_hal_rtc_ex.c ****     if (__HAL_RTC_TIMESTAMP_GET_FLAG(hrtc, RTC_FLAG_TSOVF) != 0U)
 1172              		.loc 1 746 5 is_stmt 1 view .LVU370
 1173              		.loc 1 746 9 is_stmt 0 view .LVU371
 1174 000e 2B68     		ldr	r3, [r5]
 1175 0010 DA68     		ldr	r2, [r3, #12]
 1176              		.loc 1 746 8 view .LVU372
 1177 0012 12F4805F 		tst	r2, #4096
 1178 0016 10D1     		bne	.L67
 1179              	.L61:
 735:Drivers/STM32F4xx_HAL_Driver/Src/stm32f4xx_hal_rtc_ex.c ****   {
 1180              		.loc 1 735 10 view .LVU373
 1181 0018 2B68     		ldr	r3, [r5]
 1182 001a DB68     		ldr	r3, [r3, #12]
 735:Drivers/STM32F4xx_HAL_Driver/Src/stm32f4xx_hal_rtc_ex.c ****   {
 1183              		.loc 1 735 9 view .LVU374
 1184 001c 13F4006F 		tst	r3, #2048
 1185 0020 14D1     		bne	.L68
 737:Drivers/STM32F4xx_HAL_Driver/Src/stm32f4xx_hal_rtc_ex.c ****     {
 1186              		.loc 1 737 5 is_stmt 1 view .LVU375
 737:Drivers/STM32F4xx_HAL_Driver/Src/stm32f4xx_hal_rtc_ex.c ****     {
 1187              		.loc 1 737 8 is_stmt 0 view .LVU376
 1188 0022 B4F1FF3F 		cmp	r4, #-1
 1189 0026 F2D0     		beq	.L62
 739:Drivers/STM32F4xx_HAL_Driver/Src/stm32f4xx_hal_rtc_ex.c ****       {
 1190              		.loc 1 739 7 is_stmt 1 view .LVU377
ARM GAS  /tmp/ccTwdjOX.s 			page 36


 739:Drivers/STM32F4xx_HAL_Driver/Src/stm32f4xx_hal_rtc_ex.c ****       {
 1191              		.loc 1 739 10 is_stmt 0 view .LVU378
 1192 0028 24B1     		cbz	r4, .L63
 739:Drivers/STM32F4xx_HAL_Driver/Src/stm32f4xx_hal_rtc_ex.c ****       {
 1193              		.loc 1 739 32 discriminator 1 view .LVU379
 1194 002a FFF7FEFF 		bl	HAL_GetTick
 1195              	.LVL92:
 739:Drivers/STM32F4xx_HAL_Driver/Src/stm32f4xx_hal_rtc_ex.c ****       {
 1196              		.loc 1 739 46 discriminator 1 view .LVU380
 1197 002e 801B     		subs	r0, r0, r6
 739:Drivers/STM32F4xx_HAL_Driver/Src/stm32f4xx_hal_rtc_ex.c ****       {
 1198              		.loc 1 739 27 discriminator 1 view .LVU381
 1199 0030 A042     		cmp	r0, r4
 1200 0032 ECD9     		bls	.L62
 1201              	.L63:
 741:Drivers/STM32F4xx_HAL_Driver/Src/stm32f4xx_hal_rtc_ex.c ****         return HAL_TIMEOUT;
 1202              		.loc 1 741 9 is_stmt 1 view .LVU382
 741:Drivers/STM32F4xx_HAL_Driver/Src/stm32f4xx_hal_rtc_ex.c ****         return HAL_TIMEOUT;
 1203              		.loc 1 741 21 is_stmt 0 view .LVU383
 1204 0034 0320     		movs	r0, #3
 1205 0036 6877     		strb	r0, [r5, #29]
 742:Drivers/STM32F4xx_HAL_Driver/Src/stm32f4xx_hal_rtc_ex.c ****       }
 1206              		.loc 1 742 9 is_stmt 1 view .LVU384
 1207              	.L64:
 747:Drivers/STM32F4xx_HAL_Driver/Src/stm32f4xx_hal_rtc_ex.c ****     {
 748:Drivers/STM32F4xx_HAL_Driver/Src/stm32f4xx_hal_rtc_ex.c ****       /* Clear the Timestamp Overrun Flag */
 749:Drivers/STM32F4xx_HAL_Driver/Src/stm32f4xx_hal_rtc_ex.c ****       __HAL_RTC_TIMESTAMP_CLEAR_FLAG(hrtc, RTC_FLAG_TSOVF);
 750:Drivers/STM32F4xx_HAL_Driver/Src/stm32f4xx_hal_rtc_ex.c **** 
 751:Drivers/STM32F4xx_HAL_Driver/Src/stm32f4xx_hal_rtc_ex.c ****       /* Change Timestamp state */
 752:Drivers/STM32F4xx_HAL_Driver/Src/stm32f4xx_hal_rtc_ex.c ****       hrtc->State = HAL_RTC_STATE_ERROR;
 753:Drivers/STM32F4xx_HAL_Driver/Src/stm32f4xx_hal_rtc_ex.c **** 
 754:Drivers/STM32F4xx_HAL_Driver/Src/stm32f4xx_hal_rtc_ex.c ****       return HAL_ERROR;
 755:Drivers/STM32F4xx_HAL_Driver/Src/stm32f4xx_hal_rtc_ex.c ****     }
 756:Drivers/STM32F4xx_HAL_Driver/Src/stm32f4xx_hal_rtc_ex.c ****   }
 757:Drivers/STM32F4xx_HAL_Driver/Src/stm32f4xx_hal_rtc_ex.c **** 
 758:Drivers/STM32F4xx_HAL_Driver/Src/stm32f4xx_hal_rtc_ex.c ****   /* Change RTC state */
 759:Drivers/STM32F4xx_HAL_Driver/Src/stm32f4xx_hal_rtc_ex.c ****   hrtc->State = HAL_RTC_STATE_READY;
 760:Drivers/STM32F4xx_HAL_Driver/Src/stm32f4xx_hal_rtc_ex.c **** 
 761:Drivers/STM32F4xx_HAL_Driver/Src/stm32f4xx_hal_rtc_ex.c ****   return HAL_OK;
 762:Drivers/STM32F4xx_HAL_Driver/Src/stm32f4xx_hal_rtc_ex.c **** }
 1208              		.loc 1 762 1 is_stmt 0 view .LVU385
 1209 0038 70BD     		pop	{r4, r5, r6, pc}
 1210              	.LVL93:
 1211              	.L67:
 749:Drivers/STM32F4xx_HAL_Driver/Src/stm32f4xx_hal_rtc_ex.c **** 
 1212              		.loc 1 749 7 is_stmt 1 view .LVU386
 1213 003a DA68     		ldr	r2, [r3, #12]
 1214 003c D2B2     		uxtb	r2, r2
 1215 003e 62F48452 		orn	r2, r2, #4224
 1216 0042 DA60     		str	r2, [r3, #12]
 752:Drivers/STM32F4xx_HAL_Driver/Src/stm32f4xx_hal_rtc_ex.c **** 
 1217              		.loc 1 752 7 view .LVU387
 752:Drivers/STM32F4xx_HAL_Driver/Src/stm32f4xx_hal_rtc_ex.c **** 
 1218              		.loc 1 752 19 is_stmt 0 view .LVU388
 1219 0044 0423     		movs	r3, #4
 1220 0046 6B77     		strb	r3, [r5, #29]
 754:Drivers/STM32F4xx_HAL_Driver/Src/stm32f4xx_hal_rtc_ex.c ****     }
ARM GAS  /tmp/ccTwdjOX.s 			page 37


 1221              		.loc 1 754 7 is_stmt 1 view .LVU389
 754:Drivers/STM32F4xx_HAL_Driver/Src/stm32f4xx_hal_rtc_ex.c ****     }
 1222              		.loc 1 754 14 is_stmt 0 view .LVU390
 1223 0048 0120     		movs	r0, #1
 1224 004a F5E7     		b	.L64
 1225              	.L68:
 759:Drivers/STM32F4xx_HAL_Driver/Src/stm32f4xx_hal_rtc_ex.c **** 
 1226              		.loc 1 759 3 is_stmt 1 view .LVU391
 759:Drivers/STM32F4xx_HAL_Driver/Src/stm32f4xx_hal_rtc_ex.c **** 
 1227              		.loc 1 759 15 is_stmt 0 view .LVU392
 1228 004c 0123     		movs	r3, #1
 1229 004e 6B77     		strb	r3, [r5, #29]
 761:Drivers/STM32F4xx_HAL_Driver/Src/stm32f4xx_hal_rtc_ex.c **** }
 1230              		.loc 1 761 3 is_stmt 1 view .LVU393
 761:Drivers/STM32F4xx_HAL_Driver/Src/stm32f4xx_hal_rtc_ex.c **** }
 1231              		.loc 1 761 10 is_stmt 0 view .LVU394
 1232 0050 0020     		movs	r0, #0
 1233 0052 F1E7     		b	.L64
 1234              		.cfi_endproc
 1235              	.LFE246:
 1237              		.section	.text.HAL_RTCEx_PollForTamper1Event,"ax",%progbits
 1238              		.align	1
 1239              		.global	HAL_RTCEx_PollForTamper1Event
 1240              		.syntax unified
 1241              		.thumb
 1242              		.thumb_func
 1243              		.fpu fpv4-sp-d16
 1245              	HAL_RTCEx_PollForTamper1Event:
 1246              	.LVL94:
 1247              	.LFB247:
 763:Drivers/STM32F4xx_HAL_Driver/Src/stm32f4xx_hal_rtc_ex.c **** 
 764:Drivers/STM32F4xx_HAL_Driver/Src/stm32f4xx_hal_rtc_ex.c **** /**
 765:Drivers/STM32F4xx_HAL_Driver/Src/stm32f4xx_hal_rtc_ex.c ****   * @brief  Handles Tamper 1 Polling.
 766:Drivers/STM32F4xx_HAL_Driver/Src/stm32f4xx_hal_rtc_ex.c ****   * @param  hrtc pointer to a RTC_HandleTypeDef structure that contains
 767:Drivers/STM32F4xx_HAL_Driver/Src/stm32f4xx_hal_rtc_ex.c ****   *                the configuration information for RTC.
 768:Drivers/STM32F4xx_HAL_Driver/Src/stm32f4xx_hal_rtc_ex.c ****   * @param  Timeout Timeout duration
 769:Drivers/STM32F4xx_HAL_Driver/Src/stm32f4xx_hal_rtc_ex.c ****   * @retval HAL status
 770:Drivers/STM32F4xx_HAL_Driver/Src/stm32f4xx_hal_rtc_ex.c ****   */
 771:Drivers/STM32F4xx_HAL_Driver/Src/stm32f4xx_hal_rtc_ex.c **** HAL_StatusTypeDef HAL_RTCEx_PollForTamper1Event(RTC_HandleTypeDef *hrtc, uint32_t Timeout)
 772:Drivers/STM32F4xx_HAL_Driver/Src/stm32f4xx_hal_rtc_ex.c **** {
 1248              		.loc 1 772 1 is_stmt 1 view -0
 1249              		.cfi_startproc
 1250              		@ args = 0, pretend = 0, frame = 0
 1251              		@ frame_needed = 0, uses_anonymous_args = 0
 1252              		.loc 1 772 1 is_stmt 0 view .LVU396
 1253 0000 70B5     		push	{r4, r5, r6, lr}
 1254              	.LCFI19:
 1255              		.cfi_def_cfa_offset 16
 1256              		.cfi_offset 4, -16
 1257              		.cfi_offset 5, -12
 1258              		.cfi_offset 6, -8
 1259              		.cfi_offset 14, -4
 1260 0002 0446     		mov	r4, r0
 1261 0004 0D46     		mov	r5, r1
 773:Drivers/STM32F4xx_HAL_Driver/Src/stm32f4xx_hal_rtc_ex.c ****   uint32_t tickstart = 0U;
 1262              		.loc 1 773 3 is_stmt 1 view .LVU397
 1263              	.LVL95:
ARM GAS  /tmp/ccTwdjOX.s 			page 38


 774:Drivers/STM32F4xx_HAL_Driver/Src/stm32f4xx_hal_rtc_ex.c **** 
 775:Drivers/STM32F4xx_HAL_Driver/Src/stm32f4xx_hal_rtc_ex.c ****   /* Get tick */
 776:Drivers/STM32F4xx_HAL_Driver/Src/stm32f4xx_hal_rtc_ex.c ****   tickstart = HAL_GetTick();
 1264              		.loc 1 776 3 view .LVU398
 1265              		.loc 1 776 15 is_stmt 0 view .LVU399
 1266 0006 FFF7FEFF 		bl	HAL_GetTick
 1267              	.LVL96:
 1268              		.loc 1 776 15 view .LVU400
 1269 000a 0646     		mov	r6, r0
 1270              	.LVL97:
 777:Drivers/STM32F4xx_HAL_Driver/Src/stm32f4xx_hal_rtc_ex.c **** 
 778:Drivers/STM32F4xx_HAL_Driver/Src/stm32f4xx_hal_rtc_ex.c ****   /* Get the status of the Interrupt */
 779:Drivers/STM32F4xx_HAL_Driver/Src/stm32f4xx_hal_rtc_ex.c ****   while (__HAL_RTC_TAMPER_GET_FLAG(hrtc, RTC_FLAG_TAMP1F) == 0U)
 1271              		.loc 1 779 3 is_stmt 1 view .LVU401
 1272              	.L71:
 1273              		.loc 1 779 10 is_stmt 0 view .LVU402
 1274 000c 2368     		ldr	r3, [r4]
 1275 000e DA68     		ldr	r2, [r3, #12]
 1276              		.loc 1 779 9 view .LVU403
 1277 0010 12F4005F 		tst	r2, #8192
 1278 0014 0BD1     		bne	.L76
 780:Drivers/STM32F4xx_HAL_Driver/Src/stm32f4xx_hal_rtc_ex.c ****   {
 781:Drivers/STM32F4xx_HAL_Driver/Src/stm32f4xx_hal_rtc_ex.c ****     if (Timeout != HAL_MAX_DELAY)
 1279              		.loc 1 781 5 is_stmt 1 view .LVU404
 1280              		.loc 1 781 8 is_stmt 0 view .LVU405
 1281 0016 B5F1FF3F 		cmp	r5, #-1
 1282 001a F7D0     		beq	.L71
 782:Drivers/STM32F4xx_HAL_Driver/Src/stm32f4xx_hal_rtc_ex.c ****     {
 783:Drivers/STM32F4xx_HAL_Driver/Src/stm32f4xx_hal_rtc_ex.c ****       if ((Timeout == 0U) || ((HAL_GetTick() - tickstart) > Timeout))
 1283              		.loc 1 783 7 is_stmt 1 view .LVU406
 1284              		.loc 1 783 10 is_stmt 0 view .LVU407
 1285 001c 25B1     		cbz	r5, .L72
 1286              		.loc 1 783 32 discriminator 1 view .LVU408
 1287 001e FFF7FEFF 		bl	HAL_GetTick
 1288              	.LVL98:
 1289              		.loc 1 783 46 discriminator 1 view .LVU409
 1290 0022 801B     		subs	r0, r0, r6
 1291              		.loc 1 783 27 discriminator 1 view .LVU410
 1292 0024 A842     		cmp	r0, r5
 1293 0026 F1D9     		bls	.L71
 1294              	.L72:
 784:Drivers/STM32F4xx_HAL_Driver/Src/stm32f4xx_hal_rtc_ex.c ****       {
 785:Drivers/STM32F4xx_HAL_Driver/Src/stm32f4xx_hal_rtc_ex.c ****         hrtc->State = HAL_RTC_STATE_TIMEOUT;
 1295              		.loc 1 785 9 is_stmt 1 view .LVU411
 1296              		.loc 1 785 21 is_stmt 0 view .LVU412
 1297 0028 0320     		movs	r0, #3
 1298 002a 6077     		strb	r0, [r4, #29]
 786:Drivers/STM32F4xx_HAL_Driver/Src/stm32f4xx_hal_rtc_ex.c ****         return HAL_TIMEOUT;
 1299              		.loc 1 786 9 is_stmt 1 view .LVU413
 1300              		.loc 1 786 16 is_stmt 0 view .LVU414
 1301 002c 07E0     		b	.L73
 1302              	.L76:
 787:Drivers/STM32F4xx_HAL_Driver/Src/stm32f4xx_hal_rtc_ex.c ****       }
 788:Drivers/STM32F4xx_HAL_Driver/Src/stm32f4xx_hal_rtc_ex.c ****     }
 789:Drivers/STM32F4xx_HAL_Driver/Src/stm32f4xx_hal_rtc_ex.c ****   }
 790:Drivers/STM32F4xx_HAL_Driver/Src/stm32f4xx_hal_rtc_ex.c **** 
 791:Drivers/STM32F4xx_HAL_Driver/Src/stm32f4xx_hal_rtc_ex.c ****   /* Clear the Tamper Flag */
ARM GAS  /tmp/ccTwdjOX.s 			page 39


 792:Drivers/STM32F4xx_HAL_Driver/Src/stm32f4xx_hal_rtc_ex.c ****   __HAL_RTC_TAMPER_CLEAR_FLAG(hrtc, RTC_FLAG_TAMP1F);
 1303              		.loc 1 792 3 is_stmt 1 view .LVU415
 1304 002e DA68     		ldr	r2, [r3, #12]
 1305 0030 D2B2     		uxtb	r2, r2
 1306 0032 62F40252 		orn	r2, r2, #8320
 1307 0036 DA60     		str	r2, [r3, #12]
 793:Drivers/STM32F4xx_HAL_Driver/Src/stm32f4xx_hal_rtc_ex.c **** 
 794:Drivers/STM32F4xx_HAL_Driver/Src/stm32f4xx_hal_rtc_ex.c ****   /* Change RTC state */
 795:Drivers/STM32F4xx_HAL_Driver/Src/stm32f4xx_hal_rtc_ex.c ****   hrtc->State = HAL_RTC_STATE_READY;
 1308              		.loc 1 795 3 view .LVU416
 1309              		.loc 1 795 15 is_stmt 0 view .LVU417
 1310 0038 0123     		movs	r3, #1
 1311 003a 6377     		strb	r3, [r4, #29]
 796:Drivers/STM32F4xx_HAL_Driver/Src/stm32f4xx_hal_rtc_ex.c **** 
 797:Drivers/STM32F4xx_HAL_Driver/Src/stm32f4xx_hal_rtc_ex.c ****   return HAL_OK;
 1312              		.loc 1 797 3 is_stmt 1 view .LVU418
 1313              		.loc 1 797 10 is_stmt 0 view .LVU419
 1314 003c 0020     		movs	r0, #0
 1315              	.L73:
 798:Drivers/STM32F4xx_HAL_Driver/Src/stm32f4xx_hal_rtc_ex.c **** }
 1316              		.loc 1 798 1 view .LVU420
 1317 003e 70BD     		pop	{r4, r5, r6, pc}
 1318              		.loc 1 798 1 view .LVU421
 1319              		.cfi_endproc
 1320              	.LFE247:
 1322              		.section	.text.HAL_RTCEx_PollForTamper2Event,"ax",%progbits
 1323              		.align	1
 1324              		.global	HAL_RTCEx_PollForTamper2Event
 1325              		.syntax unified
 1326              		.thumb
 1327              		.thumb_func
 1328              		.fpu fpv4-sp-d16
 1330              	HAL_RTCEx_PollForTamper2Event:
 1331              	.LVL99:
 1332              	.LFB248:
 799:Drivers/STM32F4xx_HAL_Driver/Src/stm32f4xx_hal_rtc_ex.c **** 
 800:Drivers/STM32F4xx_HAL_Driver/Src/stm32f4xx_hal_rtc_ex.c **** #if defined(RTC_TAMPER2_SUPPORT)
 801:Drivers/STM32F4xx_HAL_Driver/Src/stm32f4xx_hal_rtc_ex.c **** /**
 802:Drivers/STM32F4xx_HAL_Driver/Src/stm32f4xx_hal_rtc_ex.c ****   * @brief  Handles Tamper 2 Polling.
 803:Drivers/STM32F4xx_HAL_Driver/Src/stm32f4xx_hal_rtc_ex.c ****   * @param  hrtc pointer to a RTC_HandleTypeDef structure that contains
 804:Drivers/STM32F4xx_HAL_Driver/Src/stm32f4xx_hal_rtc_ex.c ****   *                the configuration information for RTC.
 805:Drivers/STM32F4xx_HAL_Driver/Src/stm32f4xx_hal_rtc_ex.c ****   * @param  Timeout Timeout duration
 806:Drivers/STM32F4xx_HAL_Driver/Src/stm32f4xx_hal_rtc_ex.c ****   * @retval HAL status
 807:Drivers/STM32F4xx_HAL_Driver/Src/stm32f4xx_hal_rtc_ex.c ****   */
 808:Drivers/STM32F4xx_HAL_Driver/Src/stm32f4xx_hal_rtc_ex.c **** HAL_StatusTypeDef HAL_RTCEx_PollForTamper2Event(RTC_HandleTypeDef *hrtc, uint32_t Timeout)
 809:Drivers/STM32F4xx_HAL_Driver/Src/stm32f4xx_hal_rtc_ex.c **** {
 1333              		.loc 1 809 1 is_stmt 1 view -0
 1334              		.cfi_startproc
 1335              		@ args = 0, pretend = 0, frame = 0
 1336              		@ frame_needed = 0, uses_anonymous_args = 0
 1337              		.loc 1 809 1 is_stmt 0 view .LVU423
 1338 0000 70B5     		push	{r4, r5, r6, lr}
 1339              	.LCFI20:
 1340              		.cfi_def_cfa_offset 16
 1341              		.cfi_offset 4, -16
 1342              		.cfi_offset 5, -12
 1343              		.cfi_offset 6, -8
ARM GAS  /tmp/ccTwdjOX.s 			page 40


 1344              		.cfi_offset 14, -4
 1345 0002 0446     		mov	r4, r0
 1346 0004 0D46     		mov	r5, r1
 810:Drivers/STM32F4xx_HAL_Driver/Src/stm32f4xx_hal_rtc_ex.c ****   uint32_t tickstart = 0U;
 1347              		.loc 1 810 3 is_stmt 1 view .LVU424
 1348              	.LVL100:
 811:Drivers/STM32F4xx_HAL_Driver/Src/stm32f4xx_hal_rtc_ex.c **** 
 812:Drivers/STM32F4xx_HAL_Driver/Src/stm32f4xx_hal_rtc_ex.c ****   /* Get tick */
 813:Drivers/STM32F4xx_HAL_Driver/Src/stm32f4xx_hal_rtc_ex.c ****   tickstart = HAL_GetTick();
 1349              		.loc 1 813 3 view .LVU425
 1350              		.loc 1 813 15 is_stmt 0 view .LVU426
 1351 0006 FFF7FEFF 		bl	HAL_GetTick
 1352              	.LVL101:
 1353              		.loc 1 813 15 view .LVU427
 1354 000a 0646     		mov	r6, r0
 1355              	.LVL102:
 814:Drivers/STM32F4xx_HAL_Driver/Src/stm32f4xx_hal_rtc_ex.c **** 
 815:Drivers/STM32F4xx_HAL_Driver/Src/stm32f4xx_hal_rtc_ex.c ****   /* Get the status of the Interrupt */
 816:Drivers/STM32F4xx_HAL_Driver/Src/stm32f4xx_hal_rtc_ex.c ****   while (__HAL_RTC_TAMPER_GET_FLAG(hrtc, RTC_FLAG_TAMP2F) == 0U)
 1356              		.loc 1 816 3 is_stmt 1 view .LVU428
 1357              	.L79:
 1358              		.loc 1 816 10 is_stmt 0 view .LVU429
 1359 000c 2368     		ldr	r3, [r4]
 1360 000e DA68     		ldr	r2, [r3, #12]
 1361              		.loc 1 816 9 view .LVU430
 1362 0010 12F4804F 		tst	r2, #16384
 1363 0014 0BD1     		bne	.L84
 817:Drivers/STM32F4xx_HAL_Driver/Src/stm32f4xx_hal_rtc_ex.c ****   {
 818:Drivers/STM32F4xx_HAL_Driver/Src/stm32f4xx_hal_rtc_ex.c ****     if (Timeout != HAL_MAX_DELAY)
 1364              		.loc 1 818 5 is_stmt 1 view .LVU431
 1365              		.loc 1 818 8 is_stmt 0 view .LVU432
 1366 0016 B5F1FF3F 		cmp	r5, #-1
 1367 001a F7D0     		beq	.L79
 819:Drivers/STM32F4xx_HAL_Driver/Src/stm32f4xx_hal_rtc_ex.c ****     {
 820:Drivers/STM32F4xx_HAL_Driver/Src/stm32f4xx_hal_rtc_ex.c ****       if ((Timeout == 0U) || ((HAL_GetTick() - tickstart) > Timeout))
 1368              		.loc 1 820 7 is_stmt 1 view .LVU433
 1369              		.loc 1 820 10 is_stmt 0 view .LVU434
 1370 001c 25B1     		cbz	r5, .L80
 1371              		.loc 1 820 32 discriminator 1 view .LVU435
 1372 001e FFF7FEFF 		bl	HAL_GetTick
 1373              	.LVL103:
 1374              		.loc 1 820 46 discriminator 1 view .LVU436
 1375 0022 801B     		subs	r0, r0, r6
 1376              		.loc 1 820 27 discriminator 1 view .LVU437
 1377 0024 A842     		cmp	r0, r5
 1378 0026 F1D9     		bls	.L79
 1379              	.L80:
 821:Drivers/STM32F4xx_HAL_Driver/Src/stm32f4xx_hal_rtc_ex.c ****       {
 822:Drivers/STM32F4xx_HAL_Driver/Src/stm32f4xx_hal_rtc_ex.c ****         hrtc->State = HAL_RTC_STATE_TIMEOUT;
 1380              		.loc 1 822 9 is_stmt 1 view .LVU438
 1381              		.loc 1 822 21 is_stmt 0 view .LVU439
 1382 0028 0320     		movs	r0, #3
 1383 002a 6077     		strb	r0, [r4, #29]
 823:Drivers/STM32F4xx_HAL_Driver/Src/stm32f4xx_hal_rtc_ex.c ****         return HAL_TIMEOUT;
 1384              		.loc 1 823 9 is_stmt 1 view .LVU440
 1385              		.loc 1 823 16 is_stmt 0 view .LVU441
 1386 002c 07E0     		b	.L81
ARM GAS  /tmp/ccTwdjOX.s 			page 41


 1387              	.L84:
 824:Drivers/STM32F4xx_HAL_Driver/Src/stm32f4xx_hal_rtc_ex.c ****       }
 825:Drivers/STM32F4xx_HAL_Driver/Src/stm32f4xx_hal_rtc_ex.c ****     }
 826:Drivers/STM32F4xx_HAL_Driver/Src/stm32f4xx_hal_rtc_ex.c ****   }
 827:Drivers/STM32F4xx_HAL_Driver/Src/stm32f4xx_hal_rtc_ex.c **** 
 828:Drivers/STM32F4xx_HAL_Driver/Src/stm32f4xx_hal_rtc_ex.c ****   /* Clear the Tamper Flag */
 829:Drivers/STM32F4xx_HAL_Driver/Src/stm32f4xx_hal_rtc_ex.c ****   __HAL_RTC_TAMPER_CLEAR_FLAG(hrtc, RTC_FLAG_TAMP2F);
 1388              		.loc 1 829 3 is_stmt 1 view .LVU442
 1389 002e DA68     		ldr	r2, [r3, #12]
 1390 0030 D2B2     		uxtb	r2, r2
 1391 0032 62F48142 		orn	r2, r2, #16512
 1392 0036 DA60     		str	r2, [r3, #12]
 830:Drivers/STM32F4xx_HAL_Driver/Src/stm32f4xx_hal_rtc_ex.c **** 
 831:Drivers/STM32F4xx_HAL_Driver/Src/stm32f4xx_hal_rtc_ex.c ****   /* Change RTC state */
 832:Drivers/STM32F4xx_HAL_Driver/Src/stm32f4xx_hal_rtc_ex.c ****   hrtc->State = HAL_RTC_STATE_READY;
 1393              		.loc 1 832 3 view .LVU443
 1394              		.loc 1 832 15 is_stmt 0 view .LVU444
 1395 0038 0123     		movs	r3, #1
 1396 003a 6377     		strb	r3, [r4, #29]
 833:Drivers/STM32F4xx_HAL_Driver/Src/stm32f4xx_hal_rtc_ex.c **** 
 834:Drivers/STM32F4xx_HAL_Driver/Src/stm32f4xx_hal_rtc_ex.c ****   return HAL_OK;
 1397              		.loc 1 834 3 is_stmt 1 view .LVU445
 1398              		.loc 1 834 10 is_stmt 0 view .LVU446
 1399 003c 0020     		movs	r0, #0
 1400              	.L81:
 835:Drivers/STM32F4xx_HAL_Driver/Src/stm32f4xx_hal_rtc_ex.c **** }
 1401              		.loc 1 835 1 view .LVU447
 1402 003e 70BD     		pop	{r4, r5, r6, pc}
 1403              		.loc 1 835 1 view .LVU448
 1404              		.cfi_endproc
 1405              	.LFE248:
 1407              		.section	.text.HAL_RTCEx_SetWakeUpTimer,"ax",%progbits
 1408              		.align	1
 1409              		.global	HAL_RTCEx_SetWakeUpTimer
 1410              		.syntax unified
 1411              		.thumb
 1412              		.thumb_func
 1413              		.fpu fpv4-sp-d16
 1415              	HAL_RTCEx_SetWakeUpTimer:
 1416              	.LVL104:
 1417              	.LFB249:
 836:Drivers/STM32F4xx_HAL_Driver/Src/stm32f4xx_hal_rtc_ex.c **** #endif /* RTC_TAMPER2_SUPPORT */
 837:Drivers/STM32F4xx_HAL_Driver/Src/stm32f4xx_hal_rtc_ex.c **** 
 838:Drivers/STM32F4xx_HAL_Driver/Src/stm32f4xx_hal_rtc_ex.c **** /**
 839:Drivers/STM32F4xx_HAL_Driver/Src/stm32f4xx_hal_rtc_ex.c ****   * @}
 840:Drivers/STM32F4xx_HAL_Driver/Src/stm32f4xx_hal_rtc_ex.c ****   */
 841:Drivers/STM32F4xx_HAL_Driver/Src/stm32f4xx_hal_rtc_ex.c **** 
 842:Drivers/STM32F4xx_HAL_Driver/Src/stm32f4xx_hal_rtc_ex.c **** /** @defgroup RTCEx_Exported_Functions_Group2 RTC Wakeup functions
 843:Drivers/STM32F4xx_HAL_Driver/Src/stm32f4xx_hal_rtc_ex.c ****   * @brief    RTC Wakeup functions
 844:Drivers/STM32F4xx_HAL_Driver/Src/stm32f4xx_hal_rtc_ex.c ****   *
 845:Drivers/STM32F4xx_HAL_Driver/Src/stm32f4xx_hal_rtc_ex.c **** @verbatim
 846:Drivers/STM32F4xx_HAL_Driver/Src/stm32f4xx_hal_rtc_ex.c ****  ===============================================================================
 847:Drivers/STM32F4xx_HAL_Driver/Src/stm32f4xx_hal_rtc_ex.c ****                         ##### RTC Wakeup functions #####
 848:Drivers/STM32F4xx_HAL_Driver/Src/stm32f4xx_hal_rtc_ex.c ****  ===============================================================================
 849:Drivers/STM32F4xx_HAL_Driver/Src/stm32f4xx_hal_rtc_ex.c **** 
 850:Drivers/STM32F4xx_HAL_Driver/Src/stm32f4xx_hal_rtc_ex.c ****  [..] This section provides functions allowing to configure Wakeup feature
 851:Drivers/STM32F4xx_HAL_Driver/Src/stm32f4xx_hal_rtc_ex.c **** 
ARM GAS  /tmp/ccTwdjOX.s 			page 42


 852:Drivers/STM32F4xx_HAL_Driver/Src/stm32f4xx_hal_rtc_ex.c **** @endverbatim
 853:Drivers/STM32F4xx_HAL_Driver/Src/stm32f4xx_hal_rtc_ex.c ****   * @{
 854:Drivers/STM32F4xx_HAL_Driver/Src/stm32f4xx_hal_rtc_ex.c ****   */
 855:Drivers/STM32F4xx_HAL_Driver/Src/stm32f4xx_hal_rtc_ex.c **** 
 856:Drivers/STM32F4xx_HAL_Driver/Src/stm32f4xx_hal_rtc_ex.c **** /**
 857:Drivers/STM32F4xx_HAL_Driver/Src/stm32f4xx_hal_rtc_ex.c ****   * @brief  Sets wakeup timer.
 858:Drivers/STM32F4xx_HAL_Driver/Src/stm32f4xx_hal_rtc_ex.c ****   * @param  hrtc pointer to a RTC_HandleTypeDef structure that contains
 859:Drivers/STM32F4xx_HAL_Driver/Src/stm32f4xx_hal_rtc_ex.c ****   *                the configuration information for RTC.
 860:Drivers/STM32F4xx_HAL_Driver/Src/stm32f4xx_hal_rtc_ex.c ****   * @param  WakeUpCounter Wakeup counter
 861:Drivers/STM32F4xx_HAL_Driver/Src/stm32f4xx_hal_rtc_ex.c ****   * @param  WakeUpClock Wakeup clock
 862:Drivers/STM32F4xx_HAL_Driver/Src/stm32f4xx_hal_rtc_ex.c ****   * @retval HAL status
 863:Drivers/STM32F4xx_HAL_Driver/Src/stm32f4xx_hal_rtc_ex.c ****   */
 864:Drivers/STM32F4xx_HAL_Driver/Src/stm32f4xx_hal_rtc_ex.c **** HAL_StatusTypeDef HAL_RTCEx_SetWakeUpTimer(RTC_HandleTypeDef *hrtc, uint32_t WakeUpCounter, uint32_
 865:Drivers/STM32F4xx_HAL_Driver/Src/stm32f4xx_hal_rtc_ex.c **** {
 1418              		.loc 1 865 1 is_stmt 1 view -0
 1419              		.cfi_startproc
 1420              		@ args = 0, pretend = 0, frame = 0
 1421              		@ frame_needed = 0, uses_anonymous_args = 0
 1422              		.loc 1 865 1 is_stmt 0 view .LVU450
 1423 0000 F8B5     		push	{r3, r4, r5, r6, r7, lr}
 1424              	.LCFI21:
 1425              		.cfi_def_cfa_offset 24
 1426              		.cfi_offset 3, -24
 1427              		.cfi_offset 4, -20
 1428              		.cfi_offset 5, -16
 1429              		.cfi_offset 6, -12
 1430              		.cfi_offset 7, -8
 1431              		.cfi_offset 14, -4
 866:Drivers/STM32F4xx_HAL_Driver/Src/stm32f4xx_hal_rtc_ex.c ****   uint32_t tickstart = 0U;
 1432              		.loc 1 866 3 is_stmt 1 view .LVU451
 1433              	.LVL105:
 867:Drivers/STM32F4xx_HAL_Driver/Src/stm32f4xx_hal_rtc_ex.c **** 
 868:Drivers/STM32F4xx_HAL_Driver/Src/stm32f4xx_hal_rtc_ex.c ****   /* Check the parameters */
 869:Drivers/STM32F4xx_HAL_Driver/Src/stm32f4xx_hal_rtc_ex.c ****   assert_param(IS_RTC_WAKEUP_CLOCK(WakeUpClock));
 1434              		.loc 1 869 3 view .LVU452
 870:Drivers/STM32F4xx_HAL_Driver/Src/stm32f4xx_hal_rtc_ex.c ****   assert_param(IS_RTC_WAKEUP_COUNTER(WakeUpCounter));
 1435              		.loc 1 870 3 view .LVU453
 871:Drivers/STM32F4xx_HAL_Driver/Src/stm32f4xx_hal_rtc_ex.c **** 
 872:Drivers/STM32F4xx_HAL_Driver/Src/stm32f4xx_hal_rtc_ex.c ****   /* Process Locked */
 873:Drivers/STM32F4xx_HAL_Driver/Src/stm32f4xx_hal_rtc_ex.c ****   __HAL_LOCK(hrtc);
 1436              		.loc 1 873 3 view .LVU454
 1437              		.loc 1 873 3 view .LVU455
 1438 0002 037F     		ldrb	r3, [r0, #28]	@ zero_extendqisi2
 1439 0004 012B     		cmp	r3, #1
 1440 0006 5FD0     		beq	.L92
 1441 0008 1646     		mov	r6, r2
 1442 000a 0D46     		mov	r5, r1
 1443 000c 0446     		mov	r4, r0
 1444              		.loc 1 873 3 discriminator 2 view .LVU456
 1445 000e 0123     		movs	r3, #1
 1446 0010 0377     		strb	r3, [r0, #28]
 874:Drivers/STM32F4xx_HAL_Driver/Src/stm32f4xx_hal_rtc_ex.c **** 
 875:Drivers/STM32F4xx_HAL_Driver/Src/stm32f4xx_hal_rtc_ex.c ****   hrtc->State = HAL_RTC_STATE_BUSY;
 1447              		.loc 1 875 3 discriminator 2 view .LVU457
 1448              		.loc 1 875 15 is_stmt 0 discriminator 2 view .LVU458
 1449 0012 0223     		movs	r3, #2
 1450 0014 4377     		strb	r3, [r0, #29]
ARM GAS  /tmp/ccTwdjOX.s 			page 43


 876:Drivers/STM32F4xx_HAL_Driver/Src/stm32f4xx_hal_rtc_ex.c **** 
 877:Drivers/STM32F4xx_HAL_Driver/Src/stm32f4xx_hal_rtc_ex.c ****   /* Disable the write protection for RTC registers */
 878:Drivers/STM32F4xx_HAL_Driver/Src/stm32f4xx_hal_rtc_ex.c ****   __HAL_RTC_WRITEPROTECTION_DISABLE(hrtc);
 1451              		.loc 1 878 3 is_stmt 1 discriminator 2 view .LVU459
 1452              		.loc 1 878 3 discriminator 2 view .LVU460
 1453 0016 0368     		ldr	r3, [r0]
 1454 0018 CA22     		movs	r2, #202
 1455              	.LVL106:
 1456              		.loc 1 878 3 is_stmt 0 discriminator 2 view .LVU461
 1457 001a 5A62     		str	r2, [r3, #36]
 1458              		.loc 1 878 3 is_stmt 1 discriminator 2 view .LVU462
 1459 001c 0368     		ldr	r3, [r0]
 1460 001e 5322     		movs	r2, #83
 1461 0020 5A62     		str	r2, [r3, #36]
 879:Drivers/STM32F4xx_HAL_Driver/Src/stm32f4xx_hal_rtc_ex.c **** 
 880:Drivers/STM32F4xx_HAL_Driver/Src/stm32f4xx_hal_rtc_ex.c ****   /* Check RTC WUTWF flag is reset only when wakeup timer enabled*/
 881:Drivers/STM32F4xx_HAL_Driver/Src/stm32f4xx_hal_rtc_ex.c ****   if ((hrtc->Instance->CR & RTC_CR_WUTE) != 0U)
 1462              		.loc 1 881 3 discriminator 2 view .LVU463
 1463              		.loc 1 881 12 is_stmt 0 discriminator 2 view .LVU464
 1464 0022 0368     		ldr	r3, [r0]
 1465              		.loc 1 881 22 discriminator 2 view .LVU465
 1466 0024 9B68     		ldr	r3, [r3, #8]
 1467              		.loc 1 881 6 discriminator 2 view .LVU466
 1468 0026 13F4806F 		tst	r3, #1024
 1469 002a 15D0     		beq	.L87
 882:Drivers/STM32F4xx_HAL_Driver/Src/stm32f4xx_hal_rtc_ex.c ****   {
 883:Drivers/STM32F4xx_HAL_Driver/Src/stm32f4xx_hal_rtc_ex.c ****     tickstart = HAL_GetTick();
 1470              		.loc 1 883 5 is_stmt 1 view .LVU467
 1471              		.loc 1 883 17 is_stmt 0 view .LVU468
 1472 002c FFF7FEFF 		bl	HAL_GetTick
 1473              	.LVL107:
 1474              		.loc 1 883 17 view .LVU469
 1475 0030 0746     		mov	r7, r0
 1476              	.LVL108:
 884:Drivers/STM32F4xx_HAL_Driver/Src/stm32f4xx_hal_rtc_ex.c **** 
 885:Drivers/STM32F4xx_HAL_Driver/Src/stm32f4xx_hal_rtc_ex.c ****     /* Wait till RTC WUTWF flag is reset and if timeout is reached exit */
 886:Drivers/STM32F4xx_HAL_Driver/Src/stm32f4xx_hal_rtc_ex.c ****     while (__HAL_RTC_WAKEUPTIMER_GET_FLAG(hrtc, RTC_FLAG_WUTWF) != 0U)
 1477              		.loc 1 886 5 is_stmt 1 view .LVU470
 1478              	.L88:
 1479              		.loc 1 886 12 is_stmt 0 view .LVU471
 1480 0032 2368     		ldr	r3, [r4]
 1481 0034 DB68     		ldr	r3, [r3, #12]
 1482              		.loc 1 886 11 view .LVU472
 1483 0036 13F0040F 		tst	r3, #4
 1484 003a 0DD0     		beq	.L87
 887:Drivers/STM32F4xx_HAL_Driver/Src/stm32f4xx_hal_rtc_ex.c ****     {
 888:Drivers/STM32F4xx_HAL_Driver/Src/stm32f4xx_hal_rtc_ex.c ****       if ((HAL_GetTick() - tickstart) > RTC_TIMEOUT_VALUE)
 1485              		.loc 1 888 7 is_stmt 1 view .LVU473
 1486              		.loc 1 888 12 is_stmt 0 view .LVU474
 1487 003c FFF7FEFF 		bl	HAL_GetTick
 1488              	.LVL109:
 1489              		.loc 1 888 26 view .LVU475
 1490 0040 C01B     		subs	r0, r0, r7
 1491              		.loc 1 888 10 view .LVU476
 1492 0042 B0F57A7F 		cmp	r0, #1000
 1493 0046 F4D9     		bls	.L88
 889:Drivers/STM32F4xx_HAL_Driver/Src/stm32f4xx_hal_rtc_ex.c ****       {
ARM GAS  /tmp/ccTwdjOX.s 			page 44


 890:Drivers/STM32F4xx_HAL_Driver/Src/stm32f4xx_hal_rtc_ex.c ****         /* Enable the write protection for RTC registers */
 891:Drivers/STM32F4xx_HAL_Driver/Src/stm32f4xx_hal_rtc_ex.c ****         __HAL_RTC_WRITEPROTECTION_ENABLE(hrtc);
 1494              		.loc 1 891 9 is_stmt 1 view .LVU477
 1495              		.loc 1 891 9 view .LVU478
 1496 0048 2368     		ldr	r3, [r4]
 1497 004a FF22     		movs	r2, #255
 1498 004c 5A62     		str	r2, [r3, #36]
 892:Drivers/STM32F4xx_HAL_Driver/Src/stm32f4xx_hal_rtc_ex.c **** 
 893:Drivers/STM32F4xx_HAL_Driver/Src/stm32f4xx_hal_rtc_ex.c ****         hrtc->State = HAL_RTC_STATE_TIMEOUT;
 1499              		.loc 1 893 9 view .LVU479
 1500              		.loc 1 893 21 is_stmt 0 view .LVU480
 1501 004e 0320     		movs	r0, #3
 1502 0050 6077     		strb	r0, [r4, #29]
 894:Drivers/STM32F4xx_HAL_Driver/Src/stm32f4xx_hal_rtc_ex.c **** 
 895:Drivers/STM32F4xx_HAL_Driver/Src/stm32f4xx_hal_rtc_ex.c ****         /* Process Unlocked */
 896:Drivers/STM32F4xx_HAL_Driver/Src/stm32f4xx_hal_rtc_ex.c ****         __HAL_UNLOCK(hrtc);
 1503              		.loc 1 896 9 is_stmt 1 view .LVU481
 1504              		.loc 1 896 9 view .LVU482
 1505 0052 0023     		movs	r3, #0
 1506 0054 2377     		strb	r3, [r4, #28]
 897:Drivers/STM32F4xx_HAL_Driver/Src/stm32f4xx_hal_rtc_ex.c **** 
 898:Drivers/STM32F4xx_HAL_Driver/Src/stm32f4xx_hal_rtc_ex.c ****         return HAL_TIMEOUT;
 1507              		.loc 1 898 9 view .LVU483
 1508              		.loc 1 898 16 is_stmt 0 view .LVU484
 1509 0056 36E0     		b	.L86
 1510              	.LVL110:
 1511              	.L87:
 899:Drivers/STM32F4xx_HAL_Driver/Src/stm32f4xx_hal_rtc_ex.c ****       }
 900:Drivers/STM32F4xx_HAL_Driver/Src/stm32f4xx_hal_rtc_ex.c ****     }
 901:Drivers/STM32F4xx_HAL_Driver/Src/stm32f4xx_hal_rtc_ex.c ****   }
 902:Drivers/STM32F4xx_HAL_Driver/Src/stm32f4xx_hal_rtc_ex.c **** 
 903:Drivers/STM32F4xx_HAL_Driver/Src/stm32f4xx_hal_rtc_ex.c ****   /* Disable the Wakeup timer */
 904:Drivers/STM32F4xx_HAL_Driver/Src/stm32f4xx_hal_rtc_ex.c ****   __HAL_RTC_WAKEUPTIMER_DISABLE(hrtc);
 1512              		.loc 1 904 3 is_stmt 1 view .LVU485
 1513 0058 2268     		ldr	r2, [r4]
 1514 005a 9368     		ldr	r3, [r2, #8]
 1515 005c 23F48063 		bic	r3, r3, #1024
 1516 0060 9360     		str	r3, [r2, #8]
 905:Drivers/STM32F4xx_HAL_Driver/Src/stm32f4xx_hal_rtc_ex.c **** 
 906:Drivers/STM32F4xx_HAL_Driver/Src/stm32f4xx_hal_rtc_ex.c ****   /* Clear the Wakeup flag */
 907:Drivers/STM32F4xx_HAL_Driver/Src/stm32f4xx_hal_rtc_ex.c ****   __HAL_RTC_WAKEUPTIMER_CLEAR_FLAG(hrtc, RTC_FLAG_WUTF);
 1517              		.loc 1 907 3 view .LVU486
 1518 0062 2268     		ldr	r2, [r4]
 1519 0064 D368     		ldr	r3, [r2, #12]
 1520 0066 DBB2     		uxtb	r3, r3
 1521 0068 63F49063 		orn	r3, r3, #1152
 1522 006c D360     		str	r3, [r2, #12]
 908:Drivers/STM32F4xx_HAL_Driver/Src/stm32f4xx_hal_rtc_ex.c **** 
 909:Drivers/STM32F4xx_HAL_Driver/Src/stm32f4xx_hal_rtc_ex.c ****   /* Get tick */
 910:Drivers/STM32F4xx_HAL_Driver/Src/stm32f4xx_hal_rtc_ex.c ****   tickstart = HAL_GetTick();
 1523              		.loc 1 910 3 view .LVU487
 1524              		.loc 1 910 15 is_stmt 0 view .LVU488
 1525 006e FFF7FEFF 		bl	HAL_GetTick
 1526              	.LVL111:
 1527 0072 0746     		mov	r7, r0
 1528              	.LVL112:
 911:Drivers/STM32F4xx_HAL_Driver/Src/stm32f4xx_hal_rtc_ex.c **** 
ARM GAS  /tmp/ccTwdjOX.s 			page 45


 912:Drivers/STM32F4xx_HAL_Driver/Src/stm32f4xx_hal_rtc_ex.c ****   /* Wait till RTC WUTWF flag is set and if timeout is reached exit */
 913:Drivers/STM32F4xx_HAL_Driver/Src/stm32f4xx_hal_rtc_ex.c ****   while (__HAL_RTC_WAKEUPTIMER_GET_FLAG(hrtc, RTC_FLAG_WUTWF) == 0U)
 1529              		.loc 1 913 3 is_stmt 1 view .LVU489
 1530              	.L90:
 1531              		.loc 1 913 10 is_stmt 0 view .LVU490
 1532 0074 2368     		ldr	r3, [r4]
 1533 0076 D868     		ldr	r0, [r3, #12]
 1534              		.loc 1 913 9 view .LVU491
 1535 0078 10F0040F 		tst	r0, #4
 1536 007c 0DD1     		bne	.L94
 914:Drivers/STM32F4xx_HAL_Driver/Src/stm32f4xx_hal_rtc_ex.c ****   {
 915:Drivers/STM32F4xx_HAL_Driver/Src/stm32f4xx_hal_rtc_ex.c ****     if ((HAL_GetTick() - tickstart) > RTC_TIMEOUT_VALUE)
 1537              		.loc 1 915 5 is_stmt 1 view .LVU492
 1538              		.loc 1 915 10 is_stmt 0 view .LVU493
 1539 007e FFF7FEFF 		bl	HAL_GetTick
 1540              	.LVL113:
 1541              		.loc 1 915 24 view .LVU494
 1542 0082 C01B     		subs	r0, r0, r7
 1543              		.loc 1 915 8 view .LVU495
 1544 0084 B0F57A7F 		cmp	r0, #1000
 1545 0088 F4D9     		bls	.L90
 916:Drivers/STM32F4xx_HAL_Driver/Src/stm32f4xx_hal_rtc_ex.c ****     {
 917:Drivers/STM32F4xx_HAL_Driver/Src/stm32f4xx_hal_rtc_ex.c ****       /* Enable the write protection for RTC registers */
 918:Drivers/STM32F4xx_HAL_Driver/Src/stm32f4xx_hal_rtc_ex.c ****       __HAL_RTC_WRITEPROTECTION_ENABLE(hrtc);
 1546              		.loc 1 918 7 is_stmt 1 view .LVU496
 1547              		.loc 1 918 7 view .LVU497
 1548 008a 2368     		ldr	r3, [r4]
 1549 008c FF22     		movs	r2, #255
 1550 008e 5A62     		str	r2, [r3, #36]
 919:Drivers/STM32F4xx_HAL_Driver/Src/stm32f4xx_hal_rtc_ex.c **** 
 920:Drivers/STM32F4xx_HAL_Driver/Src/stm32f4xx_hal_rtc_ex.c ****       hrtc->State = HAL_RTC_STATE_TIMEOUT;
 1551              		.loc 1 920 7 view .LVU498
 1552              		.loc 1 920 19 is_stmt 0 view .LVU499
 1553 0090 0320     		movs	r0, #3
 1554 0092 6077     		strb	r0, [r4, #29]
 921:Drivers/STM32F4xx_HAL_Driver/Src/stm32f4xx_hal_rtc_ex.c **** 
 922:Drivers/STM32F4xx_HAL_Driver/Src/stm32f4xx_hal_rtc_ex.c ****       /* Process Unlocked */
 923:Drivers/STM32F4xx_HAL_Driver/Src/stm32f4xx_hal_rtc_ex.c ****       __HAL_UNLOCK(hrtc);
 1555              		.loc 1 923 7 is_stmt 1 view .LVU500
 1556              		.loc 1 923 7 view .LVU501
 1557 0094 0023     		movs	r3, #0
 1558 0096 2377     		strb	r3, [r4, #28]
 924:Drivers/STM32F4xx_HAL_Driver/Src/stm32f4xx_hal_rtc_ex.c **** 
 925:Drivers/STM32F4xx_HAL_Driver/Src/stm32f4xx_hal_rtc_ex.c ****       return HAL_TIMEOUT;
 1559              		.loc 1 925 7 view .LVU502
 1560              		.loc 1 925 14 is_stmt 0 view .LVU503
 1561 0098 15E0     		b	.L86
 1562              	.L94:
 926:Drivers/STM32F4xx_HAL_Driver/Src/stm32f4xx_hal_rtc_ex.c ****     }
 927:Drivers/STM32F4xx_HAL_Driver/Src/stm32f4xx_hal_rtc_ex.c ****   }
 928:Drivers/STM32F4xx_HAL_Driver/Src/stm32f4xx_hal_rtc_ex.c **** 
 929:Drivers/STM32F4xx_HAL_Driver/Src/stm32f4xx_hal_rtc_ex.c ****   /* Clear the Wakeup Timer clock source bits in CR register */
 930:Drivers/STM32F4xx_HAL_Driver/Src/stm32f4xx_hal_rtc_ex.c ****   hrtc->Instance->CR &= (uint32_t)~RTC_CR_WUCKSEL;
 1563              		.loc 1 930 3 is_stmt 1 view .LVU504
 1564              		.loc 1 930 22 is_stmt 0 view .LVU505
 1565 009a 9A68     		ldr	r2, [r3, #8]
 1566 009c 22F00702 		bic	r2, r2, #7
ARM GAS  /tmp/ccTwdjOX.s 			page 46


 1567 00a0 9A60     		str	r2, [r3, #8]
 931:Drivers/STM32F4xx_HAL_Driver/Src/stm32f4xx_hal_rtc_ex.c **** 
 932:Drivers/STM32F4xx_HAL_Driver/Src/stm32f4xx_hal_rtc_ex.c ****   /* Configure the clock source */
 933:Drivers/STM32F4xx_HAL_Driver/Src/stm32f4xx_hal_rtc_ex.c ****   hrtc->Instance->CR |= (uint32_t)WakeUpClock;
 1568              		.loc 1 933 3 is_stmt 1 view .LVU506
 1569              		.loc 1 933 7 is_stmt 0 view .LVU507
 1570 00a2 2268     		ldr	r2, [r4]
 1571              		.loc 1 933 22 view .LVU508
 1572 00a4 9368     		ldr	r3, [r2, #8]
 1573 00a6 1E43     		orrs	r6, r6, r3
 1574              	.LVL114:
 1575              		.loc 1 933 22 view .LVU509
 1576 00a8 9660     		str	r6, [r2, #8]
 934:Drivers/STM32F4xx_HAL_Driver/Src/stm32f4xx_hal_rtc_ex.c **** 
 935:Drivers/STM32F4xx_HAL_Driver/Src/stm32f4xx_hal_rtc_ex.c ****   /* Configure the Wakeup Timer counter */
 936:Drivers/STM32F4xx_HAL_Driver/Src/stm32f4xx_hal_rtc_ex.c ****   hrtc->Instance->WUTR = (uint32_t)WakeUpCounter;
 1577              		.loc 1 936 3 is_stmt 1 view .LVU510
 1578              		.loc 1 936 7 is_stmt 0 view .LVU511
 1579 00aa 2368     		ldr	r3, [r4]
 1580              		.loc 1 936 24 view .LVU512
 1581 00ac 5D61     		str	r5, [r3, #20]
 937:Drivers/STM32F4xx_HAL_Driver/Src/stm32f4xx_hal_rtc_ex.c **** 
 938:Drivers/STM32F4xx_HAL_Driver/Src/stm32f4xx_hal_rtc_ex.c ****   /* Enable the Wakeup Timer */
 939:Drivers/STM32F4xx_HAL_Driver/Src/stm32f4xx_hal_rtc_ex.c ****   __HAL_RTC_WAKEUPTIMER_ENABLE(hrtc);
 1582              		.loc 1 939 3 is_stmt 1 view .LVU513
 1583 00ae 2268     		ldr	r2, [r4]
 1584 00b0 9368     		ldr	r3, [r2, #8]
 1585 00b2 43F48063 		orr	r3, r3, #1024
 1586 00b6 9360     		str	r3, [r2, #8]
 940:Drivers/STM32F4xx_HAL_Driver/Src/stm32f4xx_hal_rtc_ex.c **** 
 941:Drivers/STM32F4xx_HAL_Driver/Src/stm32f4xx_hal_rtc_ex.c ****   /* Enable the write protection for RTC registers */
 942:Drivers/STM32F4xx_HAL_Driver/Src/stm32f4xx_hal_rtc_ex.c ****   __HAL_RTC_WRITEPROTECTION_ENABLE(hrtc);
 1587              		.loc 1 942 3 view .LVU514
 1588              		.loc 1 942 3 view .LVU515
 1589 00b8 2368     		ldr	r3, [r4]
 1590 00ba FF22     		movs	r2, #255
 1591 00bc 5A62     		str	r2, [r3, #36]
 943:Drivers/STM32F4xx_HAL_Driver/Src/stm32f4xx_hal_rtc_ex.c **** 
 944:Drivers/STM32F4xx_HAL_Driver/Src/stm32f4xx_hal_rtc_ex.c ****   hrtc->State = HAL_RTC_STATE_READY;
 1592              		.loc 1 944 3 view .LVU516
 1593              		.loc 1 944 15 is_stmt 0 view .LVU517
 1594 00be 0123     		movs	r3, #1
 1595 00c0 6377     		strb	r3, [r4, #29]
 945:Drivers/STM32F4xx_HAL_Driver/Src/stm32f4xx_hal_rtc_ex.c **** 
 946:Drivers/STM32F4xx_HAL_Driver/Src/stm32f4xx_hal_rtc_ex.c ****   /* Process Unlocked */
 947:Drivers/STM32F4xx_HAL_Driver/Src/stm32f4xx_hal_rtc_ex.c ****   __HAL_UNLOCK(hrtc);
 1596              		.loc 1 947 3 is_stmt 1 view .LVU518
 1597              		.loc 1 947 3 view .LVU519
 1598 00c2 0020     		movs	r0, #0
 1599 00c4 2077     		strb	r0, [r4, #28]
 948:Drivers/STM32F4xx_HAL_Driver/Src/stm32f4xx_hal_rtc_ex.c **** 
 949:Drivers/STM32F4xx_HAL_Driver/Src/stm32f4xx_hal_rtc_ex.c ****   return HAL_OK;
 1600              		.loc 1 949 3 view .LVU520
 1601              	.LVL115:
 1602              	.L86:
 950:Drivers/STM32F4xx_HAL_Driver/Src/stm32f4xx_hal_rtc_ex.c **** }
 1603              		.loc 1 950 1 is_stmt 0 view .LVU521
ARM GAS  /tmp/ccTwdjOX.s 			page 47


 1604 00c6 F8BD     		pop	{r3, r4, r5, r6, r7, pc}
 1605              	.LVL116:
 1606              	.L92:
 873:Drivers/STM32F4xx_HAL_Driver/Src/stm32f4xx_hal_rtc_ex.c **** 
 1607              		.loc 1 873 3 view .LVU522
 1608 00c8 0220     		movs	r0, #2
 1609              	.LVL117:
 873:Drivers/STM32F4xx_HAL_Driver/Src/stm32f4xx_hal_rtc_ex.c **** 
 1610              		.loc 1 873 3 view .LVU523
 1611 00ca FCE7     		b	.L86
 1612              		.cfi_endproc
 1613              	.LFE249:
 1615              		.section	.text.HAL_RTCEx_SetWakeUpTimer_IT,"ax",%progbits
 1616              		.align	1
 1617              		.global	HAL_RTCEx_SetWakeUpTimer_IT
 1618              		.syntax unified
 1619              		.thumb
 1620              		.thumb_func
 1621              		.fpu fpv4-sp-d16
 1623              	HAL_RTCEx_SetWakeUpTimer_IT:
 1624              	.LVL118:
 1625              	.LFB250:
 951:Drivers/STM32F4xx_HAL_Driver/Src/stm32f4xx_hal_rtc_ex.c **** 
 952:Drivers/STM32F4xx_HAL_Driver/Src/stm32f4xx_hal_rtc_ex.c **** /**
 953:Drivers/STM32F4xx_HAL_Driver/Src/stm32f4xx_hal_rtc_ex.c ****   * @brief  Sets wakeup timer with interrupt.
 954:Drivers/STM32F4xx_HAL_Driver/Src/stm32f4xx_hal_rtc_ex.c ****   * @param  hrtc pointer to a RTC_HandleTypeDef structure that contains
 955:Drivers/STM32F4xx_HAL_Driver/Src/stm32f4xx_hal_rtc_ex.c ****   *                the configuration information for RTC.
 956:Drivers/STM32F4xx_HAL_Driver/Src/stm32f4xx_hal_rtc_ex.c ****   * @param  WakeUpCounter Wakeup counter
 957:Drivers/STM32F4xx_HAL_Driver/Src/stm32f4xx_hal_rtc_ex.c ****   * @param  WakeUpClock Wakeup clock
 958:Drivers/STM32F4xx_HAL_Driver/Src/stm32f4xx_hal_rtc_ex.c ****   * @retval HAL status
 959:Drivers/STM32F4xx_HAL_Driver/Src/stm32f4xx_hal_rtc_ex.c ****   */
 960:Drivers/STM32F4xx_HAL_Driver/Src/stm32f4xx_hal_rtc_ex.c **** HAL_StatusTypeDef HAL_RTCEx_SetWakeUpTimer_IT(RTC_HandleTypeDef *hrtc, uint32_t WakeUpCounter, uint
 961:Drivers/STM32F4xx_HAL_Driver/Src/stm32f4xx_hal_rtc_ex.c **** {
 1626              		.loc 1 961 1 is_stmt 1 view -0
 1627              		.cfi_startproc
 1628              		@ args = 0, pretend = 0, frame = 8
 1629              		@ frame_needed = 0, uses_anonymous_args = 0
 1630              		@ link register save eliminated.
 1631              		.loc 1 961 1 is_stmt 0 view .LVU525
 1632 0000 70B4     		push	{r4, r5, r6}
 1633              	.LCFI22:
 1634              		.cfi_def_cfa_offset 12
 1635              		.cfi_offset 4, -12
 1636              		.cfi_offset 5, -8
 1637              		.cfi_offset 6, -4
 1638 0002 83B0     		sub	sp, sp, #12
 1639              	.LCFI23:
 1640              		.cfi_def_cfa_offset 24
 962:Drivers/STM32F4xx_HAL_Driver/Src/stm32f4xx_hal_rtc_ex.c ****   __IO uint32_t count  = RTC_TIMEOUT_VALUE * (SystemCoreClock / 32U / 1000U);
 1641              		.loc 1 962 3 is_stmt 1 view .LVU526
 1642              		.loc 1 962 69 is_stmt 0 view .LVU527
 1643 0004 3A4B     		ldr	r3, .L106
 1644 0006 1B68     		ldr	r3, [r3]
 1645 0008 3A4C     		ldr	r4, .L106+4
 1646 000a A4FB0343 		umull	r4, r3, r4, r3
 1647 000e DB0A     		lsrs	r3, r3, #11
 1648              		.loc 1 962 44 view .LVU528
ARM GAS  /tmp/ccTwdjOX.s 			page 48


 1649 0010 4FF47A76 		mov	r6, #1000
 1650 0014 06FB03F6 		mul	r6, r6, r3
 1651              		.loc 1 962 17 view .LVU529
 1652 0018 0196     		str	r6, [sp, #4]
 963:Drivers/STM32F4xx_HAL_Driver/Src/stm32f4xx_hal_rtc_ex.c **** 
 964:Drivers/STM32F4xx_HAL_Driver/Src/stm32f4xx_hal_rtc_ex.c ****   /* Check the parameters */
 965:Drivers/STM32F4xx_HAL_Driver/Src/stm32f4xx_hal_rtc_ex.c ****   assert_param(IS_RTC_WAKEUP_CLOCK(WakeUpClock));
 1653              		.loc 1 965 3 is_stmt 1 view .LVU530
 966:Drivers/STM32F4xx_HAL_Driver/Src/stm32f4xx_hal_rtc_ex.c ****   assert_param(IS_RTC_WAKEUP_COUNTER(WakeUpCounter));
 1654              		.loc 1 966 3 view .LVU531
 967:Drivers/STM32F4xx_HAL_Driver/Src/stm32f4xx_hal_rtc_ex.c **** 
 968:Drivers/STM32F4xx_HAL_Driver/Src/stm32f4xx_hal_rtc_ex.c ****   /* Process Locked */
 969:Drivers/STM32F4xx_HAL_Driver/Src/stm32f4xx_hal_rtc_ex.c ****   __HAL_LOCK(hrtc);
 1655              		.loc 1 969 3 view .LVU532
 1656              		.loc 1 969 3 view .LVU533
 1657 001a 037F     		ldrb	r3, [r0, #28]	@ zero_extendqisi2
 1658 001c 012B     		cmp	r3, #1
 1659 001e 65D0     		beq	.L102
 1660              		.loc 1 969 3 discriminator 2 view .LVU534
 1661 0020 0123     		movs	r3, #1
 1662 0022 0377     		strb	r3, [r0, #28]
 970:Drivers/STM32F4xx_HAL_Driver/Src/stm32f4xx_hal_rtc_ex.c **** 
 971:Drivers/STM32F4xx_HAL_Driver/Src/stm32f4xx_hal_rtc_ex.c ****   hrtc->State = HAL_RTC_STATE_BUSY;
 1663              		.loc 1 971 3 discriminator 2 view .LVU535
 1664              		.loc 1 971 15 is_stmt 0 discriminator 2 view .LVU536
 1665 0024 0223     		movs	r3, #2
 1666 0026 4377     		strb	r3, [r0, #29]
 972:Drivers/STM32F4xx_HAL_Driver/Src/stm32f4xx_hal_rtc_ex.c **** 
 973:Drivers/STM32F4xx_HAL_Driver/Src/stm32f4xx_hal_rtc_ex.c ****   /* Disable the write protection for RTC registers */
 974:Drivers/STM32F4xx_HAL_Driver/Src/stm32f4xx_hal_rtc_ex.c ****   __HAL_RTC_WRITEPROTECTION_DISABLE(hrtc);
 1667              		.loc 1 974 3 is_stmt 1 discriminator 2 view .LVU537
 1668              		.loc 1 974 3 discriminator 2 view .LVU538
 1669 0028 0368     		ldr	r3, [r0]
 1670 002a CA24     		movs	r4, #202
 1671 002c 5C62     		str	r4, [r3, #36]
 1672              		.loc 1 974 3 discriminator 2 view .LVU539
 1673 002e 0368     		ldr	r3, [r0]
 1674 0030 5324     		movs	r4, #83
 1675 0032 5C62     		str	r4, [r3, #36]
 975:Drivers/STM32F4xx_HAL_Driver/Src/stm32f4xx_hal_rtc_ex.c **** 
 976:Drivers/STM32F4xx_HAL_Driver/Src/stm32f4xx_hal_rtc_ex.c ****   /* Check RTC WUTWF flag is reset only when wakeup timer enabled */
 977:Drivers/STM32F4xx_HAL_Driver/Src/stm32f4xx_hal_rtc_ex.c ****   if ((hrtc->Instance->CR & RTC_CR_WUTE) != 0U)
 1676              		.loc 1 977 3 discriminator 2 view .LVU540
 1677              		.loc 1 977 12 is_stmt 0 discriminator 2 view .LVU541
 1678 0034 0568     		ldr	r5, [r0]
 1679              		.loc 1 977 22 discriminator 2 view .LVU542
 1680 0036 AB68     		ldr	r3, [r5, #8]
 1681              		.loc 1 977 6 discriminator 2 view .LVU543
 1682 0038 13F4806F 		tst	r3, #1024
 1683 003c 08D0     		beq	.L97
 1684              	.L99:
 978:Drivers/STM32F4xx_HAL_Driver/Src/stm32f4xx_hal_rtc_ex.c ****   {
 979:Drivers/STM32F4xx_HAL_Driver/Src/stm32f4xx_hal_rtc_ex.c ****     /* Wait till RTC WUTWF flag is reset and if timeout is reached exit */
 980:Drivers/STM32F4xx_HAL_Driver/Src/stm32f4xx_hal_rtc_ex.c ****     do
 1685              		.loc 1 980 5 is_stmt 1 view .LVU544
 981:Drivers/STM32F4xx_HAL_Driver/Src/stm32f4xx_hal_rtc_ex.c ****     {
 982:Drivers/STM32F4xx_HAL_Driver/Src/stm32f4xx_hal_rtc_ex.c ****       if (count-- == 0U)
ARM GAS  /tmp/ccTwdjOX.s 			page 49


 1686              		.loc 1 982 7 view .LVU545
 1687              		.loc 1 982 16 is_stmt 0 view .LVU546
 1688 003e 019B     		ldr	r3, [sp, #4]
 1689 0040 5C1E     		subs	r4, r3, #1
 1690 0042 0194     		str	r4, [sp, #4]
 1691              		.loc 1 982 10 view .LVU547
 1692 0044 002B     		cmp	r3, #0
 1693 0046 3ED0     		beq	.L104
 983:Drivers/STM32F4xx_HAL_Driver/Src/stm32f4xx_hal_rtc_ex.c ****       {
 984:Drivers/STM32F4xx_HAL_Driver/Src/stm32f4xx_hal_rtc_ex.c ****         /* Enable the write protection for RTC registers */
 985:Drivers/STM32F4xx_HAL_Driver/Src/stm32f4xx_hal_rtc_ex.c ****         __HAL_RTC_WRITEPROTECTION_ENABLE(hrtc);
 986:Drivers/STM32F4xx_HAL_Driver/Src/stm32f4xx_hal_rtc_ex.c **** 
 987:Drivers/STM32F4xx_HAL_Driver/Src/stm32f4xx_hal_rtc_ex.c ****         hrtc->State = HAL_RTC_STATE_TIMEOUT;
 988:Drivers/STM32F4xx_HAL_Driver/Src/stm32f4xx_hal_rtc_ex.c **** 
 989:Drivers/STM32F4xx_HAL_Driver/Src/stm32f4xx_hal_rtc_ex.c ****         /* Process Unlocked */
 990:Drivers/STM32F4xx_HAL_Driver/Src/stm32f4xx_hal_rtc_ex.c ****         __HAL_UNLOCK(hrtc);
 991:Drivers/STM32F4xx_HAL_Driver/Src/stm32f4xx_hal_rtc_ex.c **** 
 992:Drivers/STM32F4xx_HAL_Driver/Src/stm32f4xx_hal_rtc_ex.c ****         return HAL_TIMEOUT;
 993:Drivers/STM32F4xx_HAL_Driver/Src/stm32f4xx_hal_rtc_ex.c ****       }
 994:Drivers/STM32F4xx_HAL_Driver/Src/stm32f4xx_hal_rtc_ex.c ****     } while (__HAL_RTC_WAKEUPTIMER_GET_FLAG(hrtc, RTC_FLAG_WUTWF) != 0U);
 1694              		.loc 1 994 14 view .LVU548
 1695 0048 EB68     		ldr	r3, [r5, #12]
 1696              		.loc 1 994 5 view .LVU549
 1697 004a 13F0040F 		tst	r3, #4
 1698 004e F6D1     		bne	.L99
 1699              	.L97:
 995:Drivers/STM32F4xx_HAL_Driver/Src/stm32f4xx_hal_rtc_ex.c ****   }
 996:Drivers/STM32F4xx_HAL_Driver/Src/stm32f4xx_hal_rtc_ex.c **** 
 997:Drivers/STM32F4xx_HAL_Driver/Src/stm32f4xx_hal_rtc_ex.c ****   /* Disable the Wakeup timer */
 998:Drivers/STM32F4xx_HAL_Driver/Src/stm32f4xx_hal_rtc_ex.c ****   __HAL_RTC_WAKEUPTIMER_DISABLE(hrtc);
 1700              		.loc 1 998 3 is_stmt 1 view .LVU550
 1701 0050 AB68     		ldr	r3, [r5, #8]
 1702 0052 23F48063 		bic	r3, r3, #1024
 1703 0056 AB60     		str	r3, [r5, #8]
 999:Drivers/STM32F4xx_HAL_Driver/Src/stm32f4xx_hal_rtc_ex.c **** 
1000:Drivers/STM32F4xx_HAL_Driver/Src/stm32f4xx_hal_rtc_ex.c ****   /* Clear the Wakeup flag */
1001:Drivers/STM32F4xx_HAL_Driver/Src/stm32f4xx_hal_rtc_ex.c ****   __HAL_RTC_WAKEUPTIMER_CLEAR_FLAG(hrtc, RTC_FLAG_WUTF);
 1704              		.loc 1 1001 3 view .LVU551
 1705 0058 0468     		ldr	r4, [r0]
 1706 005a E368     		ldr	r3, [r4, #12]
 1707 005c DBB2     		uxtb	r3, r3
 1708 005e 63F49063 		orn	r3, r3, #1152
 1709 0062 E360     		str	r3, [r4, #12]
1002:Drivers/STM32F4xx_HAL_Driver/Src/stm32f4xx_hal_rtc_ex.c **** 
1003:Drivers/STM32F4xx_HAL_Driver/Src/stm32f4xx_hal_rtc_ex.c ****   /* Reload the counter */
1004:Drivers/STM32F4xx_HAL_Driver/Src/stm32f4xx_hal_rtc_ex.c ****   count = RTC_TIMEOUT_VALUE * (SystemCoreClock / 32U / 1000U);
 1710              		.loc 1 1004 3 view .LVU552
 1711              		.loc 1 1004 9 is_stmt 0 view .LVU553
 1712 0064 0196     		str	r6, [sp, #4]
 1713              	.L101:
1005:Drivers/STM32F4xx_HAL_Driver/Src/stm32f4xx_hal_rtc_ex.c **** 
1006:Drivers/STM32F4xx_HAL_Driver/Src/stm32f4xx_hal_rtc_ex.c ****   /* Wait till RTC WUTWF flag is set and if timeout is reached exit */
1007:Drivers/STM32F4xx_HAL_Driver/Src/stm32f4xx_hal_rtc_ex.c ****   do
 1714              		.loc 1 1007 3 is_stmt 1 view .LVU554
1008:Drivers/STM32F4xx_HAL_Driver/Src/stm32f4xx_hal_rtc_ex.c ****   {
1009:Drivers/STM32F4xx_HAL_Driver/Src/stm32f4xx_hal_rtc_ex.c ****     if (count-- == 0U)
 1715              		.loc 1 1009 5 view .LVU555
ARM GAS  /tmp/ccTwdjOX.s 			page 50


 1716              		.loc 1 1009 14 is_stmt 0 view .LVU556
 1717 0066 019B     		ldr	r3, [sp, #4]
 1718 0068 5C1E     		subs	r4, r3, #1
 1719 006a 0194     		str	r4, [sp, #4]
 1720              		.loc 1 1009 8 view .LVU557
 1721 006c 002B     		cmp	r3, #0
 1722 006e 32D0     		beq	.L105
1010:Drivers/STM32F4xx_HAL_Driver/Src/stm32f4xx_hal_rtc_ex.c ****     {
1011:Drivers/STM32F4xx_HAL_Driver/Src/stm32f4xx_hal_rtc_ex.c ****       /* Enable the write protection for RTC registers */
1012:Drivers/STM32F4xx_HAL_Driver/Src/stm32f4xx_hal_rtc_ex.c ****       __HAL_RTC_WRITEPROTECTION_ENABLE(hrtc);
1013:Drivers/STM32F4xx_HAL_Driver/Src/stm32f4xx_hal_rtc_ex.c **** 
1014:Drivers/STM32F4xx_HAL_Driver/Src/stm32f4xx_hal_rtc_ex.c ****       hrtc->State = HAL_RTC_STATE_TIMEOUT;
1015:Drivers/STM32F4xx_HAL_Driver/Src/stm32f4xx_hal_rtc_ex.c **** 
1016:Drivers/STM32F4xx_HAL_Driver/Src/stm32f4xx_hal_rtc_ex.c ****       /* Process Unlocked */
1017:Drivers/STM32F4xx_HAL_Driver/Src/stm32f4xx_hal_rtc_ex.c ****       __HAL_UNLOCK(hrtc);
1018:Drivers/STM32F4xx_HAL_Driver/Src/stm32f4xx_hal_rtc_ex.c **** 
1019:Drivers/STM32F4xx_HAL_Driver/Src/stm32f4xx_hal_rtc_ex.c ****       return HAL_TIMEOUT;
1020:Drivers/STM32F4xx_HAL_Driver/Src/stm32f4xx_hal_rtc_ex.c ****     }
1021:Drivers/STM32F4xx_HAL_Driver/Src/stm32f4xx_hal_rtc_ex.c ****   } while (__HAL_RTC_WAKEUPTIMER_GET_FLAG(hrtc, RTC_FLAG_WUTWF) == 0U);
 1723              		.loc 1 1021 12 view .LVU558
 1724 0070 0368     		ldr	r3, [r0]
 1725 0072 DC68     		ldr	r4, [r3, #12]
 1726              		.loc 1 1021 3 view .LVU559
 1727 0074 14F0040F 		tst	r4, #4
 1728 0078 F5D0     		beq	.L101
1022:Drivers/STM32F4xx_HAL_Driver/Src/stm32f4xx_hal_rtc_ex.c **** 
1023:Drivers/STM32F4xx_HAL_Driver/Src/stm32f4xx_hal_rtc_ex.c ****   /* Clear the Wakeup Timer clock source bits in CR register */
1024:Drivers/STM32F4xx_HAL_Driver/Src/stm32f4xx_hal_rtc_ex.c ****   hrtc->Instance->CR &= (uint32_t)~RTC_CR_WUCKSEL;
 1729              		.loc 1 1024 3 is_stmt 1 view .LVU560
 1730              		.loc 1 1024 22 is_stmt 0 view .LVU561
 1731 007a 9C68     		ldr	r4, [r3, #8]
 1732 007c 24F00704 		bic	r4, r4, #7
 1733 0080 9C60     		str	r4, [r3, #8]
1025:Drivers/STM32F4xx_HAL_Driver/Src/stm32f4xx_hal_rtc_ex.c **** 
1026:Drivers/STM32F4xx_HAL_Driver/Src/stm32f4xx_hal_rtc_ex.c ****   /* Configure the clock source */
1027:Drivers/STM32F4xx_HAL_Driver/Src/stm32f4xx_hal_rtc_ex.c ****   hrtc->Instance->CR |= (uint32_t)WakeUpClock;
 1734              		.loc 1 1027 3 is_stmt 1 view .LVU562
 1735              		.loc 1 1027 7 is_stmt 0 view .LVU563
 1736 0082 0468     		ldr	r4, [r0]
 1737              		.loc 1 1027 22 view .LVU564
 1738 0084 A368     		ldr	r3, [r4, #8]
 1739 0086 1A43     		orrs	r2, r2, r3
 1740              	.LVL119:
 1741              		.loc 1 1027 22 view .LVU565
 1742 0088 A260     		str	r2, [r4, #8]
1028:Drivers/STM32F4xx_HAL_Driver/Src/stm32f4xx_hal_rtc_ex.c **** 
1029:Drivers/STM32F4xx_HAL_Driver/Src/stm32f4xx_hal_rtc_ex.c ****   /* Configure the Wakeup Timer counter */
1030:Drivers/STM32F4xx_HAL_Driver/Src/stm32f4xx_hal_rtc_ex.c ****   hrtc->Instance->WUTR = (uint32_t)WakeUpCounter;
 1743              		.loc 1 1030 3 is_stmt 1 view .LVU566
 1744              		.loc 1 1030 7 is_stmt 0 view .LVU567
 1745 008a 0368     		ldr	r3, [r0]
 1746              		.loc 1 1030 24 view .LVU568
 1747 008c 5961     		str	r1, [r3, #20]
1031:Drivers/STM32F4xx_HAL_Driver/Src/stm32f4xx_hal_rtc_ex.c **** 
1032:Drivers/STM32F4xx_HAL_Driver/Src/stm32f4xx_hal_rtc_ex.c ****   /* RTC wakeup timer Interrupt Configuration: EXTI configuration */
1033:Drivers/STM32F4xx_HAL_Driver/Src/stm32f4xx_hal_rtc_ex.c ****   __HAL_RTC_WAKEUPTIMER_EXTI_ENABLE_IT();
 1748              		.loc 1 1033 3 is_stmt 1 view .LVU569
ARM GAS  /tmp/ccTwdjOX.s 			page 51


 1749 008e 1A4B     		ldr	r3, .L106+8
 1750 0090 1A68     		ldr	r2, [r3]
 1751 0092 42F48002 		orr	r2, r2, #4194304
 1752 0096 1A60     		str	r2, [r3]
1034:Drivers/STM32F4xx_HAL_Driver/Src/stm32f4xx_hal_rtc_ex.c ****   __HAL_RTC_WAKEUPTIMER_EXTI_ENABLE_RISING_EDGE();
 1753              		.loc 1 1034 3 view .LVU570
 1754 0098 9A68     		ldr	r2, [r3, #8]
 1755 009a 42F48002 		orr	r2, r2, #4194304
 1756 009e 9A60     		str	r2, [r3, #8]
1035:Drivers/STM32F4xx_HAL_Driver/Src/stm32f4xx_hal_rtc_ex.c **** 
1036:Drivers/STM32F4xx_HAL_Driver/Src/stm32f4xx_hal_rtc_ex.c ****   /* Configure the interrupt in the RTC_CR register */
1037:Drivers/STM32F4xx_HAL_Driver/Src/stm32f4xx_hal_rtc_ex.c ****   __HAL_RTC_WAKEUPTIMER_ENABLE_IT(hrtc, RTC_IT_WUT);
 1757              		.loc 1 1037 3 view .LVU571
 1758 00a0 0268     		ldr	r2, [r0]
 1759 00a2 9368     		ldr	r3, [r2, #8]
 1760 00a4 43F48043 		orr	r3, r3, #16384
 1761 00a8 9360     		str	r3, [r2, #8]
1038:Drivers/STM32F4xx_HAL_Driver/Src/stm32f4xx_hal_rtc_ex.c **** 
1039:Drivers/STM32F4xx_HAL_Driver/Src/stm32f4xx_hal_rtc_ex.c ****   /* Enable the Wakeup Timer */
1040:Drivers/STM32F4xx_HAL_Driver/Src/stm32f4xx_hal_rtc_ex.c ****   __HAL_RTC_WAKEUPTIMER_ENABLE(hrtc);
 1762              		.loc 1 1040 3 view .LVU572
 1763 00aa 0268     		ldr	r2, [r0]
 1764 00ac 9368     		ldr	r3, [r2, #8]
 1765 00ae 43F48063 		orr	r3, r3, #1024
 1766 00b2 9360     		str	r3, [r2, #8]
1041:Drivers/STM32F4xx_HAL_Driver/Src/stm32f4xx_hal_rtc_ex.c **** 
1042:Drivers/STM32F4xx_HAL_Driver/Src/stm32f4xx_hal_rtc_ex.c ****   /* Enable the write protection for RTC registers */
1043:Drivers/STM32F4xx_HAL_Driver/Src/stm32f4xx_hal_rtc_ex.c ****   __HAL_RTC_WRITEPROTECTION_ENABLE(hrtc);
 1767              		.loc 1 1043 3 view .LVU573
 1768              		.loc 1 1043 3 view .LVU574
 1769 00b4 0368     		ldr	r3, [r0]
 1770 00b6 FF22     		movs	r2, #255
 1771 00b8 5A62     		str	r2, [r3, #36]
1044:Drivers/STM32F4xx_HAL_Driver/Src/stm32f4xx_hal_rtc_ex.c **** 
1045:Drivers/STM32F4xx_HAL_Driver/Src/stm32f4xx_hal_rtc_ex.c ****   hrtc->State = HAL_RTC_STATE_READY;
 1772              		.loc 1 1045 3 view .LVU575
 1773              		.loc 1 1045 15 is_stmt 0 view .LVU576
 1774 00ba 0123     		movs	r3, #1
 1775 00bc 4377     		strb	r3, [r0, #29]
1046:Drivers/STM32F4xx_HAL_Driver/Src/stm32f4xx_hal_rtc_ex.c **** 
1047:Drivers/STM32F4xx_HAL_Driver/Src/stm32f4xx_hal_rtc_ex.c ****   /* Process Unlocked */
1048:Drivers/STM32F4xx_HAL_Driver/Src/stm32f4xx_hal_rtc_ex.c ****   __HAL_UNLOCK(hrtc);
 1776              		.loc 1 1048 3 is_stmt 1 view .LVU577
 1777              		.loc 1 1048 3 view .LVU578
 1778 00be 0023     		movs	r3, #0
 1779 00c0 0377     		strb	r3, [r0, #28]
1049:Drivers/STM32F4xx_HAL_Driver/Src/stm32f4xx_hal_rtc_ex.c **** 
1050:Drivers/STM32F4xx_HAL_Driver/Src/stm32f4xx_hal_rtc_ex.c ****   return HAL_OK;
 1780              		.loc 1 1050 3 view .LVU579
 1781              		.loc 1 1050 10 is_stmt 0 view .LVU580
 1782 00c2 1846     		mov	r0, r3
 1783              	.LVL120:
 1784              		.loc 1 1050 10 view .LVU581
 1785 00c4 0FE0     		b	.L96
 1786              	.LVL121:
 1787              	.L104:
 985:Drivers/STM32F4xx_HAL_Driver/Src/stm32f4xx_hal_rtc_ex.c **** 
ARM GAS  /tmp/ccTwdjOX.s 			page 52


 1788              		.loc 1 985 9 is_stmt 1 view .LVU582
 985:Drivers/STM32F4xx_HAL_Driver/Src/stm32f4xx_hal_rtc_ex.c **** 
 1789              		.loc 1 985 9 view .LVU583
 1790 00c6 FF23     		movs	r3, #255
 1791 00c8 6B62     		str	r3, [r5, #36]
 987:Drivers/STM32F4xx_HAL_Driver/Src/stm32f4xx_hal_rtc_ex.c **** 
 1792              		.loc 1 987 9 view .LVU584
 987:Drivers/STM32F4xx_HAL_Driver/Src/stm32f4xx_hal_rtc_ex.c **** 
 1793              		.loc 1 987 21 is_stmt 0 view .LVU585
 1794 00ca 0323     		movs	r3, #3
 1795 00cc 4377     		strb	r3, [r0, #29]
 990:Drivers/STM32F4xx_HAL_Driver/Src/stm32f4xx_hal_rtc_ex.c **** 
 1796              		.loc 1 990 9 is_stmt 1 view .LVU586
 990:Drivers/STM32F4xx_HAL_Driver/Src/stm32f4xx_hal_rtc_ex.c **** 
 1797              		.loc 1 990 9 view .LVU587
 1798 00ce 0022     		movs	r2, #0
 1799              	.LVL122:
 990:Drivers/STM32F4xx_HAL_Driver/Src/stm32f4xx_hal_rtc_ex.c **** 
 1800              		.loc 1 990 9 is_stmt 0 view .LVU588
 1801 00d0 0277     		strb	r2, [r0, #28]
 992:Drivers/STM32F4xx_HAL_Driver/Src/stm32f4xx_hal_rtc_ex.c ****       }
 1802              		.loc 1 992 9 is_stmt 1 view .LVU589
 992:Drivers/STM32F4xx_HAL_Driver/Src/stm32f4xx_hal_rtc_ex.c ****       }
 1803              		.loc 1 992 16 is_stmt 0 view .LVU590
 1804 00d2 1846     		mov	r0, r3
 1805              	.LVL123:
 992:Drivers/STM32F4xx_HAL_Driver/Src/stm32f4xx_hal_rtc_ex.c ****       }
 1806              		.loc 1 992 16 view .LVU591
 1807 00d4 07E0     		b	.L96
 1808              	.LVL124:
 1809              	.L105:
1012:Drivers/STM32F4xx_HAL_Driver/Src/stm32f4xx_hal_rtc_ex.c **** 
 1810              		.loc 1 1012 7 is_stmt 1 view .LVU592
1012:Drivers/STM32F4xx_HAL_Driver/Src/stm32f4xx_hal_rtc_ex.c **** 
 1811              		.loc 1 1012 7 view .LVU593
 1812 00d6 0368     		ldr	r3, [r0]
 1813 00d8 FF22     		movs	r2, #255
 1814              	.LVL125:
1012:Drivers/STM32F4xx_HAL_Driver/Src/stm32f4xx_hal_rtc_ex.c **** 
 1815              		.loc 1 1012 7 is_stmt 0 view .LVU594
 1816 00da 5A62     		str	r2, [r3, #36]
1014:Drivers/STM32F4xx_HAL_Driver/Src/stm32f4xx_hal_rtc_ex.c **** 
 1817              		.loc 1 1014 7 is_stmt 1 view .LVU595
1014:Drivers/STM32F4xx_HAL_Driver/Src/stm32f4xx_hal_rtc_ex.c **** 
 1818              		.loc 1 1014 19 is_stmt 0 view .LVU596
 1819 00dc 0323     		movs	r3, #3
 1820 00de 4377     		strb	r3, [r0, #29]
1017:Drivers/STM32F4xx_HAL_Driver/Src/stm32f4xx_hal_rtc_ex.c **** 
 1821              		.loc 1 1017 7 is_stmt 1 view .LVU597
1017:Drivers/STM32F4xx_HAL_Driver/Src/stm32f4xx_hal_rtc_ex.c **** 
 1822              		.loc 1 1017 7 view .LVU598
 1823 00e0 0022     		movs	r2, #0
 1824 00e2 0277     		strb	r2, [r0, #28]
1019:Drivers/STM32F4xx_HAL_Driver/Src/stm32f4xx_hal_rtc_ex.c ****     }
 1825              		.loc 1 1019 7 view .LVU599
1019:Drivers/STM32F4xx_HAL_Driver/Src/stm32f4xx_hal_rtc_ex.c ****     }
 1826              		.loc 1 1019 14 is_stmt 0 view .LVU600
ARM GAS  /tmp/ccTwdjOX.s 			page 53


 1827 00e4 1846     		mov	r0, r3
 1828              	.LVL126:
 1829              	.L96:
1051:Drivers/STM32F4xx_HAL_Driver/Src/stm32f4xx_hal_rtc_ex.c **** }
 1830              		.loc 1 1051 1 view .LVU601
 1831 00e6 03B0     		add	sp, sp, #12
 1832              	.LCFI24:
 1833              		.cfi_remember_state
 1834              		.cfi_def_cfa_offset 12
 1835              		@ sp needed
 1836 00e8 70BC     		pop	{r4, r5, r6}
 1837              	.LCFI25:
 1838              		.cfi_restore 6
 1839              		.cfi_restore 5
 1840              		.cfi_restore 4
 1841              		.cfi_def_cfa_offset 0
 1842 00ea 7047     		bx	lr
 1843              	.LVL127:
 1844              	.L102:
 1845              	.LCFI26:
 1846              		.cfi_restore_state
 969:Drivers/STM32F4xx_HAL_Driver/Src/stm32f4xx_hal_rtc_ex.c **** 
 1847              		.loc 1 969 3 view .LVU602
 1848 00ec 0220     		movs	r0, #2
 1849              	.LVL128:
 969:Drivers/STM32F4xx_HAL_Driver/Src/stm32f4xx_hal_rtc_ex.c **** 
 1850              		.loc 1 969 3 view .LVU603
 1851 00ee FAE7     		b	.L96
 1852              	.L107:
 1853              		.align	2
 1854              	.L106:
 1855 00f0 00000000 		.word	SystemCoreClock
 1856 00f4 D34D6210 		.word	274877907
 1857 00f8 003C0140 		.word	1073822720
 1858              		.cfi_endproc
 1859              	.LFE250:
 1861              		.section	.text.HAL_RTCEx_DeactivateWakeUpTimer,"ax",%progbits
 1862              		.align	1
 1863              		.global	HAL_RTCEx_DeactivateWakeUpTimer
 1864              		.syntax unified
 1865              		.thumb
 1866              		.thumb_func
 1867              		.fpu fpv4-sp-d16
 1869              	HAL_RTCEx_DeactivateWakeUpTimer:
 1870              	.LVL129:
 1871              	.LFB251:
1052:Drivers/STM32F4xx_HAL_Driver/Src/stm32f4xx_hal_rtc_ex.c **** 
1053:Drivers/STM32F4xx_HAL_Driver/Src/stm32f4xx_hal_rtc_ex.c **** /**
1054:Drivers/STM32F4xx_HAL_Driver/Src/stm32f4xx_hal_rtc_ex.c ****   * @brief  Deactivates wakeup timer counter.
1055:Drivers/STM32F4xx_HAL_Driver/Src/stm32f4xx_hal_rtc_ex.c ****   * @param  hrtc pointer to a RTC_HandleTypeDef structure that contains
1056:Drivers/STM32F4xx_HAL_Driver/Src/stm32f4xx_hal_rtc_ex.c ****   *                the configuration information for RTC.
1057:Drivers/STM32F4xx_HAL_Driver/Src/stm32f4xx_hal_rtc_ex.c ****   * @retval HAL status
1058:Drivers/STM32F4xx_HAL_Driver/Src/stm32f4xx_hal_rtc_ex.c ****   */
1059:Drivers/STM32F4xx_HAL_Driver/Src/stm32f4xx_hal_rtc_ex.c **** HAL_StatusTypeDef HAL_RTCEx_DeactivateWakeUpTimer(RTC_HandleTypeDef *hrtc)
1060:Drivers/STM32F4xx_HAL_Driver/Src/stm32f4xx_hal_rtc_ex.c **** {
 1872              		.loc 1 1060 1 is_stmt 1 view -0
 1873              		.cfi_startproc
ARM GAS  /tmp/ccTwdjOX.s 			page 54


 1874              		@ args = 0, pretend = 0, frame = 0
 1875              		@ frame_needed = 0, uses_anonymous_args = 0
 1876              		.loc 1 1060 1 is_stmt 0 view .LVU605
 1877 0000 38B5     		push	{r3, r4, r5, lr}
 1878              	.LCFI27:
 1879              		.cfi_def_cfa_offset 16
 1880              		.cfi_offset 3, -16
 1881              		.cfi_offset 4, -12
 1882              		.cfi_offset 5, -8
 1883              		.cfi_offset 14, -4
1061:Drivers/STM32F4xx_HAL_Driver/Src/stm32f4xx_hal_rtc_ex.c ****   uint32_t tickstart = 0U;
 1884              		.loc 1 1061 3 is_stmt 1 view .LVU606
 1885              	.LVL130:
1062:Drivers/STM32F4xx_HAL_Driver/Src/stm32f4xx_hal_rtc_ex.c **** 
1063:Drivers/STM32F4xx_HAL_Driver/Src/stm32f4xx_hal_rtc_ex.c ****   /* Process Locked */
1064:Drivers/STM32F4xx_HAL_Driver/Src/stm32f4xx_hal_rtc_ex.c ****   __HAL_LOCK(hrtc);
 1886              		.loc 1 1064 3 view .LVU607
 1887              		.loc 1 1064 3 view .LVU608
 1888 0002 037F     		ldrb	r3, [r0, #28]	@ zero_extendqisi2
 1889 0004 012B     		cmp	r3, #1
 1890 0006 31D0     		beq	.L112
 1891 0008 0446     		mov	r4, r0
 1892              		.loc 1 1064 3 discriminator 2 view .LVU609
 1893 000a 0123     		movs	r3, #1
 1894 000c 0377     		strb	r3, [r0, #28]
1065:Drivers/STM32F4xx_HAL_Driver/Src/stm32f4xx_hal_rtc_ex.c **** 
1066:Drivers/STM32F4xx_HAL_Driver/Src/stm32f4xx_hal_rtc_ex.c ****   hrtc->State = HAL_RTC_STATE_BUSY;
 1895              		.loc 1 1066 3 discriminator 2 view .LVU610
 1896              		.loc 1 1066 15 is_stmt 0 discriminator 2 view .LVU611
 1897 000e 0223     		movs	r3, #2
 1898 0010 4377     		strb	r3, [r0, #29]
1067:Drivers/STM32F4xx_HAL_Driver/Src/stm32f4xx_hal_rtc_ex.c **** 
1068:Drivers/STM32F4xx_HAL_Driver/Src/stm32f4xx_hal_rtc_ex.c ****   /* Disable the write protection for RTC registers */
1069:Drivers/STM32F4xx_HAL_Driver/Src/stm32f4xx_hal_rtc_ex.c ****   __HAL_RTC_WRITEPROTECTION_DISABLE(hrtc);
 1899              		.loc 1 1069 3 is_stmt 1 discriminator 2 view .LVU612
 1900              		.loc 1 1069 3 discriminator 2 view .LVU613
 1901 0012 0368     		ldr	r3, [r0]
 1902 0014 CA22     		movs	r2, #202
 1903 0016 5A62     		str	r2, [r3, #36]
 1904              		.loc 1 1069 3 discriminator 2 view .LVU614
 1905 0018 0368     		ldr	r3, [r0]
 1906 001a 5322     		movs	r2, #83
 1907 001c 5A62     		str	r2, [r3, #36]
1070:Drivers/STM32F4xx_HAL_Driver/Src/stm32f4xx_hal_rtc_ex.c **** 
1071:Drivers/STM32F4xx_HAL_Driver/Src/stm32f4xx_hal_rtc_ex.c ****   /* Disable the Wakeup Timer */
1072:Drivers/STM32F4xx_HAL_Driver/Src/stm32f4xx_hal_rtc_ex.c ****   __HAL_RTC_WAKEUPTIMER_DISABLE(hrtc);
 1908              		.loc 1 1072 3 discriminator 2 view .LVU615
 1909 001e 0268     		ldr	r2, [r0]
 1910 0020 9368     		ldr	r3, [r2, #8]
 1911 0022 23F48063 		bic	r3, r3, #1024
 1912 0026 9360     		str	r3, [r2, #8]
1073:Drivers/STM32F4xx_HAL_Driver/Src/stm32f4xx_hal_rtc_ex.c **** 
1074:Drivers/STM32F4xx_HAL_Driver/Src/stm32f4xx_hal_rtc_ex.c ****   /* In case of interrupt mode is used, the interrupt source must disabled */
1075:Drivers/STM32F4xx_HAL_Driver/Src/stm32f4xx_hal_rtc_ex.c ****   __HAL_RTC_WAKEUPTIMER_DISABLE_IT(hrtc, RTC_IT_WUT);
 1913              		.loc 1 1075 3 discriminator 2 view .LVU616
 1914 0028 0268     		ldr	r2, [r0]
 1915 002a 9368     		ldr	r3, [r2, #8]
ARM GAS  /tmp/ccTwdjOX.s 			page 55


 1916 002c 23F48043 		bic	r3, r3, #16384
 1917 0030 9360     		str	r3, [r2, #8]
1076:Drivers/STM32F4xx_HAL_Driver/Src/stm32f4xx_hal_rtc_ex.c **** 
1077:Drivers/STM32F4xx_HAL_Driver/Src/stm32f4xx_hal_rtc_ex.c ****   /* Get tick */
1078:Drivers/STM32F4xx_HAL_Driver/Src/stm32f4xx_hal_rtc_ex.c ****   tickstart = HAL_GetTick();
 1918              		.loc 1 1078 3 discriminator 2 view .LVU617
 1919              		.loc 1 1078 15 is_stmt 0 discriminator 2 view .LVU618
 1920 0032 FFF7FEFF 		bl	HAL_GetTick
 1921              	.LVL131:
 1922              		.loc 1 1078 15 discriminator 2 view .LVU619
 1923 0036 0546     		mov	r5, r0
 1924              	.LVL132:
1079:Drivers/STM32F4xx_HAL_Driver/Src/stm32f4xx_hal_rtc_ex.c **** 
1080:Drivers/STM32F4xx_HAL_Driver/Src/stm32f4xx_hal_rtc_ex.c ****   /* Wait till RTC WUTWF flag is set and if timeout is reached exit */
1081:Drivers/STM32F4xx_HAL_Driver/Src/stm32f4xx_hal_rtc_ex.c ****   while (__HAL_RTC_WAKEUPTIMER_GET_FLAG(hrtc, RTC_FLAG_WUTWF) == 0U)
 1925              		.loc 1 1081 3 is_stmt 1 discriminator 2 view .LVU620
 1926              	.L110:
 1927              		.loc 1 1081 10 is_stmt 0 view .LVU621
 1928 0038 2368     		ldr	r3, [r4]
 1929 003a DA68     		ldr	r2, [r3, #12]
 1930              		.loc 1 1081 9 view .LVU622
 1931 003c 12F0040F 		tst	r2, #4
 1932 0040 0DD1     		bne	.L114
1082:Drivers/STM32F4xx_HAL_Driver/Src/stm32f4xx_hal_rtc_ex.c ****   {
1083:Drivers/STM32F4xx_HAL_Driver/Src/stm32f4xx_hal_rtc_ex.c ****     if ((HAL_GetTick() - tickstart) > RTC_TIMEOUT_VALUE)
 1933              		.loc 1 1083 5 is_stmt 1 view .LVU623
 1934              		.loc 1 1083 10 is_stmt 0 view .LVU624
 1935 0042 FFF7FEFF 		bl	HAL_GetTick
 1936              	.LVL133:
 1937              		.loc 1 1083 24 view .LVU625
 1938 0046 401B     		subs	r0, r0, r5
 1939              		.loc 1 1083 8 view .LVU626
 1940 0048 B0F57A7F 		cmp	r0, #1000
 1941 004c F4D9     		bls	.L110
1084:Drivers/STM32F4xx_HAL_Driver/Src/stm32f4xx_hal_rtc_ex.c ****     {
1085:Drivers/STM32F4xx_HAL_Driver/Src/stm32f4xx_hal_rtc_ex.c ****       /* Enable the write protection for RTC registers */
1086:Drivers/STM32F4xx_HAL_Driver/Src/stm32f4xx_hal_rtc_ex.c ****       __HAL_RTC_WRITEPROTECTION_ENABLE(hrtc);
 1942              		.loc 1 1086 7 is_stmt 1 view .LVU627
 1943              		.loc 1 1086 7 view .LVU628
 1944 004e 2368     		ldr	r3, [r4]
 1945 0050 FF22     		movs	r2, #255
 1946 0052 5A62     		str	r2, [r3, #36]
1087:Drivers/STM32F4xx_HAL_Driver/Src/stm32f4xx_hal_rtc_ex.c **** 
1088:Drivers/STM32F4xx_HAL_Driver/Src/stm32f4xx_hal_rtc_ex.c ****       hrtc->State = HAL_RTC_STATE_TIMEOUT;
 1947              		.loc 1 1088 7 view .LVU629
 1948              		.loc 1 1088 19 is_stmt 0 view .LVU630
 1949 0054 0320     		movs	r0, #3
 1950 0056 6077     		strb	r0, [r4, #29]
1089:Drivers/STM32F4xx_HAL_Driver/Src/stm32f4xx_hal_rtc_ex.c **** 
1090:Drivers/STM32F4xx_HAL_Driver/Src/stm32f4xx_hal_rtc_ex.c ****       /* Process Unlocked */
1091:Drivers/STM32F4xx_HAL_Driver/Src/stm32f4xx_hal_rtc_ex.c ****       __HAL_UNLOCK(hrtc);
 1951              		.loc 1 1091 7 is_stmt 1 view .LVU631
 1952              		.loc 1 1091 7 view .LVU632
 1953 0058 0023     		movs	r3, #0
 1954 005a 2377     		strb	r3, [r4, #28]
1092:Drivers/STM32F4xx_HAL_Driver/Src/stm32f4xx_hal_rtc_ex.c **** 
1093:Drivers/STM32F4xx_HAL_Driver/Src/stm32f4xx_hal_rtc_ex.c ****       return HAL_TIMEOUT;
ARM GAS  /tmp/ccTwdjOX.s 			page 56


 1955              		.loc 1 1093 7 view .LVU633
 1956              		.loc 1 1093 14 is_stmt 0 view .LVU634
 1957 005c 05E0     		b	.L109
 1958              	.L114:
1094:Drivers/STM32F4xx_HAL_Driver/Src/stm32f4xx_hal_rtc_ex.c ****     }
1095:Drivers/STM32F4xx_HAL_Driver/Src/stm32f4xx_hal_rtc_ex.c ****   }
1096:Drivers/STM32F4xx_HAL_Driver/Src/stm32f4xx_hal_rtc_ex.c **** 
1097:Drivers/STM32F4xx_HAL_Driver/Src/stm32f4xx_hal_rtc_ex.c ****   /* Enable the write protection for RTC registers */
1098:Drivers/STM32F4xx_HAL_Driver/Src/stm32f4xx_hal_rtc_ex.c ****   __HAL_RTC_WRITEPROTECTION_ENABLE(hrtc);
 1959              		.loc 1 1098 3 is_stmt 1 view .LVU635
 1960              		.loc 1 1098 3 view .LVU636
 1961 005e FF22     		movs	r2, #255
 1962 0060 5A62     		str	r2, [r3, #36]
1099:Drivers/STM32F4xx_HAL_Driver/Src/stm32f4xx_hal_rtc_ex.c **** 
1100:Drivers/STM32F4xx_HAL_Driver/Src/stm32f4xx_hal_rtc_ex.c ****   hrtc->State = HAL_RTC_STATE_READY;
 1963              		.loc 1 1100 3 view .LVU637
 1964              		.loc 1 1100 15 is_stmt 0 view .LVU638
 1965 0062 0123     		movs	r3, #1
 1966 0064 6377     		strb	r3, [r4, #29]
1101:Drivers/STM32F4xx_HAL_Driver/Src/stm32f4xx_hal_rtc_ex.c **** 
1102:Drivers/STM32F4xx_HAL_Driver/Src/stm32f4xx_hal_rtc_ex.c ****   /* Process Unlocked */
1103:Drivers/STM32F4xx_HAL_Driver/Src/stm32f4xx_hal_rtc_ex.c ****   __HAL_UNLOCK(hrtc);
 1967              		.loc 1 1103 3 is_stmt 1 view .LVU639
 1968              		.loc 1 1103 3 view .LVU640
 1969 0066 0020     		movs	r0, #0
 1970 0068 2077     		strb	r0, [r4, #28]
1104:Drivers/STM32F4xx_HAL_Driver/Src/stm32f4xx_hal_rtc_ex.c **** 
1105:Drivers/STM32F4xx_HAL_Driver/Src/stm32f4xx_hal_rtc_ex.c ****   return HAL_OK;
 1971              		.loc 1 1105 3 view .LVU641
 1972              	.LVL134:
 1973              	.L109:
1106:Drivers/STM32F4xx_HAL_Driver/Src/stm32f4xx_hal_rtc_ex.c **** }
 1974              		.loc 1 1106 1 is_stmt 0 view .LVU642
 1975 006a 38BD     		pop	{r3, r4, r5, pc}
 1976              	.LVL135:
 1977              	.L112:
1064:Drivers/STM32F4xx_HAL_Driver/Src/stm32f4xx_hal_rtc_ex.c **** 
 1978              		.loc 1 1064 3 view .LVU643
 1979 006c 0220     		movs	r0, #2
 1980              	.LVL136:
1064:Drivers/STM32F4xx_HAL_Driver/Src/stm32f4xx_hal_rtc_ex.c **** 
 1981              		.loc 1 1064 3 view .LVU644
 1982 006e FCE7     		b	.L109
 1983              		.cfi_endproc
 1984              	.LFE251:
 1986              		.section	.text.HAL_RTCEx_GetWakeUpTimer,"ax",%progbits
 1987              		.align	1
 1988              		.global	HAL_RTCEx_GetWakeUpTimer
 1989              		.syntax unified
 1990              		.thumb
 1991              		.thumb_func
 1992              		.fpu fpv4-sp-d16
 1994              	HAL_RTCEx_GetWakeUpTimer:
 1995              	.LVL137:
 1996              	.LFB252:
1107:Drivers/STM32F4xx_HAL_Driver/Src/stm32f4xx_hal_rtc_ex.c **** 
1108:Drivers/STM32F4xx_HAL_Driver/Src/stm32f4xx_hal_rtc_ex.c **** /**
ARM GAS  /tmp/ccTwdjOX.s 			page 57


1109:Drivers/STM32F4xx_HAL_Driver/Src/stm32f4xx_hal_rtc_ex.c ****   * @brief  Gets wakeup timer counter.
1110:Drivers/STM32F4xx_HAL_Driver/Src/stm32f4xx_hal_rtc_ex.c ****   * @param  hrtc pointer to a RTC_HandleTypeDef structure that contains
1111:Drivers/STM32F4xx_HAL_Driver/Src/stm32f4xx_hal_rtc_ex.c ****   *                the configuration information for RTC.
1112:Drivers/STM32F4xx_HAL_Driver/Src/stm32f4xx_hal_rtc_ex.c ****   * @retval Counter value
1113:Drivers/STM32F4xx_HAL_Driver/Src/stm32f4xx_hal_rtc_ex.c ****   */
1114:Drivers/STM32F4xx_HAL_Driver/Src/stm32f4xx_hal_rtc_ex.c **** uint32_t HAL_RTCEx_GetWakeUpTimer(RTC_HandleTypeDef *hrtc)
1115:Drivers/STM32F4xx_HAL_Driver/Src/stm32f4xx_hal_rtc_ex.c **** {
 1997              		.loc 1 1115 1 is_stmt 1 view -0
 1998              		.cfi_startproc
 1999              		@ args = 0, pretend = 0, frame = 0
 2000              		@ frame_needed = 0, uses_anonymous_args = 0
 2001              		@ link register save eliminated.
1116:Drivers/STM32F4xx_HAL_Driver/Src/stm32f4xx_hal_rtc_ex.c ****   /* Get the counter value */
1117:Drivers/STM32F4xx_HAL_Driver/Src/stm32f4xx_hal_rtc_ex.c ****   return ((uint32_t)(hrtc->Instance->WUTR & RTC_WUTR_WUT));
 2002              		.loc 1 1117 3 view .LVU646
 2003              		.loc 1 1117 26 is_stmt 0 view .LVU647
 2004 0000 0368     		ldr	r3, [r0]
 2005              		.loc 1 1117 36 view .LVU648
 2006 0002 5869     		ldr	r0, [r3, #20]
 2007              	.LVL138:
1118:Drivers/STM32F4xx_HAL_Driver/Src/stm32f4xx_hal_rtc_ex.c **** }
 2008              		.loc 1 1118 1 view .LVU649
 2009 0004 80B2     		uxth	r0, r0
 2010 0006 7047     		bx	lr
 2011              		.cfi_endproc
 2012              	.LFE252:
 2014              		.section	.text.HAL_RTCEx_WakeUpTimerEventCallback,"ax",%progbits
 2015              		.align	1
 2016              		.weak	HAL_RTCEx_WakeUpTimerEventCallback
 2017              		.syntax unified
 2018              		.thumb
 2019              		.thumb_func
 2020              		.fpu fpv4-sp-d16
 2022              	HAL_RTCEx_WakeUpTimerEventCallback:
 2023              	.LVL139:
 2024              	.LFB254:
1119:Drivers/STM32F4xx_HAL_Driver/Src/stm32f4xx_hal_rtc_ex.c **** 
1120:Drivers/STM32F4xx_HAL_Driver/Src/stm32f4xx_hal_rtc_ex.c **** /**
1121:Drivers/STM32F4xx_HAL_Driver/Src/stm32f4xx_hal_rtc_ex.c ****   * @brief  Handles Wakeup Timer interrupt request.
1122:Drivers/STM32F4xx_HAL_Driver/Src/stm32f4xx_hal_rtc_ex.c ****   * @note   Unlike alarm interrupt line (shared by Alarms A and B) or tamper
1123:Drivers/STM32F4xx_HAL_Driver/Src/stm32f4xx_hal_rtc_ex.c ****   *         interrupt line (shared by timestamp and tampers) wakeup timer
1124:Drivers/STM32F4xx_HAL_Driver/Src/stm32f4xx_hal_rtc_ex.c ****   *         interrupt line is exclusive to the wakeup timer.
1125:Drivers/STM32F4xx_HAL_Driver/Src/stm32f4xx_hal_rtc_ex.c ****   *         There is no need in this case to check on the interrupt enable
1126:Drivers/STM32F4xx_HAL_Driver/Src/stm32f4xx_hal_rtc_ex.c ****   *         status via __HAL_RTC_WAKEUPTIMER_GET_IT_SOURCE().
1127:Drivers/STM32F4xx_HAL_Driver/Src/stm32f4xx_hal_rtc_ex.c ****   * @param  hrtc pointer to a RTC_HandleTypeDef structure that contains
1128:Drivers/STM32F4xx_HAL_Driver/Src/stm32f4xx_hal_rtc_ex.c ****   *                the configuration information for RTC.
1129:Drivers/STM32F4xx_HAL_Driver/Src/stm32f4xx_hal_rtc_ex.c ****   * @retval None
1130:Drivers/STM32F4xx_HAL_Driver/Src/stm32f4xx_hal_rtc_ex.c ****   */
1131:Drivers/STM32F4xx_HAL_Driver/Src/stm32f4xx_hal_rtc_ex.c **** void HAL_RTCEx_WakeUpTimerIRQHandler(RTC_HandleTypeDef *hrtc)
1132:Drivers/STM32F4xx_HAL_Driver/Src/stm32f4xx_hal_rtc_ex.c **** {
1133:Drivers/STM32F4xx_HAL_Driver/Src/stm32f4xx_hal_rtc_ex.c ****   /* Get the pending status of the Wakeup timer Interrupt */
1134:Drivers/STM32F4xx_HAL_Driver/Src/stm32f4xx_hal_rtc_ex.c ****   if (__HAL_RTC_WAKEUPTIMER_GET_FLAG(hrtc, RTC_FLAG_WUTF) != 0U)
1135:Drivers/STM32F4xx_HAL_Driver/Src/stm32f4xx_hal_rtc_ex.c ****   {
1136:Drivers/STM32F4xx_HAL_Driver/Src/stm32f4xx_hal_rtc_ex.c ****     /* Wakeup timer callback */
1137:Drivers/STM32F4xx_HAL_Driver/Src/stm32f4xx_hal_rtc_ex.c **** #if (USE_HAL_RTC_REGISTER_CALLBACKS == 1)
1138:Drivers/STM32F4xx_HAL_Driver/Src/stm32f4xx_hal_rtc_ex.c ****     hrtc->WakeUpTimerEventCallback(hrtc);
1139:Drivers/STM32F4xx_HAL_Driver/Src/stm32f4xx_hal_rtc_ex.c **** #else
ARM GAS  /tmp/ccTwdjOX.s 			page 58


1140:Drivers/STM32F4xx_HAL_Driver/Src/stm32f4xx_hal_rtc_ex.c ****     HAL_RTCEx_WakeUpTimerEventCallback(hrtc);
1141:Drivers/STM32F4xx_HAL_Driver/Src/stm32f4xx_hal_rtc_ex.c **** #endif /* USE_HAL_RTC_REGISTER_CALLBACKS */
1142:Drivers/STM32F4xx_HAL_Driver/Src/stm32f4xx_hal_rtc_ex.c **** 
1143:Drivers/STM32F4xx_HAL_Driver/Src/stm32f4xx_hal_rtc_ex.c ****     /* Clear the Wakeup timer interrupt pending bit */
1144:Drivers/STM32F4xx_HAL_Driver/Src/stm32f4xx_hal_rtc_ex.c ****     __HAL_RTC_WAKEUPTIMER_CLEAR_FLAG(hrtc, RTC_FLAG_WUTF);
1145:Drivers/STM32F4xx_HAL_Driver/Src/stm32f4xx_hal_rtc_ex.c ****   }
1146:Drivers/STM32F4xx_HAL_Driver/Src/stm32f4xx_hal_rtc_ex.c **** 
1147:Drivers/STM32F4xx_HAL_Driver/Src/stm32f4xx_hal_rtc_ex.c ****   /* Clear the EXTI's line Flag for RTC WakeUpTimer */
1148:Drivers/STM32F4xx_HAL_Driver/Src/stm32f4xx_hal_rtc_ex.c ****   __HAL_RTC_WAKEUPTIMER_EXTI_CLEAR_FLAG();
1149:Drivers/STM32F4xx_HAL_Driver/Src/stm32f4xx_hal_rtc_ex.c **** 
1150:Drivers/STM32F4xx_HAL_Driver/Src/stm32f4xx_hal_rtc_ex.c ****   /* Change RTC state */
1151:Drivers/STM32F4xx_HAL_Driver/Src/stm32f4xx_hal_rtc_ex.c ****   hrtc->State = HAL_RTC_STATE_READY;
1152:Drivers/STM32F4xx_HAL_Driver/Src/stm32f4xx_hal_rtc_ex.c **** }
1153:Drivers/STM32F4xx_HAL_Driver/Src/stm32f4xx_hal_rtc_ex.c **** 
1154:Drivers/STM32F4xx_HAL_Driver/Src/stm32f4xx_hal_rtc_ex.c **** /**
1155:Drivers/STM32F4xx_HAL_Driver/Src/stm32f4xx_hal_rtc_ex.c ****   * @brief  Wakeup Timer callback.
1156:Drivers/STM32F4xx_HAL_Driver/Src/stm32f4xx_hal_rtc_ex.c ****   * @param  hrtc pointer to a RTC_HandleTypeDef structure that contains
1157:Drivers/STM32F4xx_HAL_Driver/Src/stm32f4xx_hal_rtc_ex.c ****   *                the configuration information for RTC.
1158:Drivers/STM32F4xx_HAL_Driver/Src/stm32f4xx_hal_rtc_ex.c ****   * @retval None
1159:Drivers/STM32F4xx_HAL_Driver/Src/stm32f4xx_hal_rtc_ex.c ****   */
1160:Drivers/STM32F4xx_HAL_Driver/Src/stm32f4xx_hal_rtc_ex.c **** __weak void HAL_RTCEx_WakeUpTimerEventCallback(RTC_HandleTypeDef *hrtc)
1161:Drivers/STM32F4xx_HAL_Driver/Src/stm32f4xx_hal_rtc_ex.c **** {
 2025              		.loc 1 1161 1 is_stmt 1 view -0
 2026              		.cfi_startproc
 2027              		@ args = 0, pretend = 0, frame = 0
 2028              		@ frame_needed = 0, uses_anonymous_args = 0
 2029              		@ link register save eliminated.
1162:Drivers/STM32F4xx_HAL_Driver/Src/stm32f4xx_hal_rtc_ex.c ****   /* Prevent unused argument(s) compilation warning */
1163:Drivers/STM32F4xx_HAL_Driver/Src/stm32f4xx_hal_rtc_ex.c ****   UNUSED(hrtc);
 2030              		.loc 1 1163 3 view .LVU651
1164:Drivers/STM32F4xx_HAL_Driver/Src/stm32f4xx_hal_rtc_ex.c **** 
1165:Drivers/STM32F4xx_HAL_Driver/Src/stm32f4xx_hal_rtc_ex.c ****   /* NOTE: This function should not be modified, when the callback is needed,
1166:Drivers/STM32F4xx_HAL_Driver/Src/stm32f4xx_hal_rtc_ex.c ****            the HAL_RTCEx_WakeUpTimerEventCallback could be implemented in the user file
1167:Drivers/STM32F4xx_HAL_Driver/Src/stm32f4xx_hal_rtc_ex.c ****    */
1168:Drivers/STM32F4xx_HAL_Driver/Src/stm32f4xx_hal_rtc_ex.c **** }
 2031              		.loc 1 1168 1 is_stmt 0 view .LVU652
 2032 0000 7047     		bx	lr
 2033              		.cfi_endproc
 2034              	.LFE254:
 2036              		.section	.text.HAL_RTCEx_WakeUpTimerIRQHandler,"ax",%progbits
 2037              		.align	1
 2038              		.global	HAL_RTCEx_WakeUpTimerIRQHandler
 2039              		.syntax unified
 2040              		.thumb
 2041              		.thumb_func
 2042              		.fpu fpv4-sp-d16
 2044              	HAL_RTCEx_WakeUpTimerIRQHandler:
 2045              	.LVL140:
 2046              	.LFB253:
1132:Drivers/STM32F4xx_HAL_Driver/Src/stm32f4xx_hal_rtc_ex.c ****   /* Get the pending status of the Wakeup timer Interrupt */
 2047              		.loc 1 1132 1 is_stmt 1 view -0
 2048              		.cfi_startproc
 2049              		@ args = 0, pretend = 0, frame = 0
 2050              		@ frame_needed = 0, uses_anonymous_args = 0
1132:Drivers/STM32F4xx_HAL_Driver/Src/stm32f4xx_hal_rtc_ex.c ****   /* Get the pending status of the Wakeup timer Interrupt */
 2051              		.loc 1 1132 1 is_stmt 0 view .LVU654
 2052 0000 10B5     		push	{r4, lr}
ARM GAS  /tmp/ccTwdjOX.s 			page 59


 2053              	.LCFI28:
 2054              		.cfi_def_cfa_offset 8
 2055              		.cfi_offset 4, -8
 2056              		.cfi_offset 14, -4
 2057 0002 0446     		mov	r4, r0
1134:Drivers/STM32F4xx_HAL_Driver/Src/stm32f4xx_hal_rtc_ex.c ****   {
 2058              		.loc 1 1134 3 is_stmt 1 view .LVU655
1134:Drivers/STM32F4xx_HAL_Driver/Src/stm32f4xx_hal_rtc_ex.c ****   {
 2059              		.loc 1 1134 7 is_stmt 0 view .LVU656
 2060 0004 0368     		ldr	r3, [r0]
 2061 0006 DB68     		ldr	r3, [r3, #12]
1134:Drivers/STM32F4xx_HAL_Driver/Src/stm32f4xx_hal_rtc_ex.c ****   {
 2062              		.loc 1 1134 6 view .LVU657
 2063 0008 13F4806F 		tst	r3, #1024
 2064 000c 06D1     		bne	.L120
 2065              	.LVL141:
 2066              	.L118:
1148:Drivers/STM32F4xx_HAL_Driver/Src/stm32f4xx_hal_rtc_ex.c **** 
 2067              		.loc 1 1148 3 is_stmt 1 view .LVU658
 2068 000e 084B     		ldr	r3, .L121
 2069 0010 4FF48002 		mov	r2, #4194304
 2070 0014 5A61     		str	r2, [r3, #20]
1151:Drivers/STM32F4xx_HAL_Driver/Src/stm32f4xx_hal_rtc_ex.c **** }
 2071              		.loc 1 1151 3 view .LVU659
1151:Drivers/STM32F4xx_HAL_Driver/Src/stm32f4xx_hal_rtc_ex.c **** }
 2072              		.loc 1 1151 15 is_stmt 0 view .LVU660
 2073 0016 0123     		movs	r3, #1
 2074 0018 6377     		strb	r3, [r4, #29]
1152:Drivers/STM32F4xx_HAL_Driver/Src/stm32f4xx_hal_rtc_ex.c **** 
 2075              		.loc 1 1152 1 view .LVU661
 2076 001a 10BD     		pop	{r4, pc}
 2077              	.LVL142:
 2078              	.L120:
1140:Drivers/STM32F4xx_HAL_Driver/Src/stm32f4xx_hal_rtc_ex.c **** #endif /* USE_HAL_RTC_REGISTER_CALLBACKS */
 2079              		.loc 1 1140 5 is_stmt 1 view .LVU662
 2080 001c FFF7FEFF 		bl	HAL_RTCEx_WakeUpTimerEventCallback
 2081              	.LVL143:
1144:Drivers/STM32F4xx_HAL_Driver/Src/stm32f4xx_hal_rtc_ex.c ****   }
 2082              		.loc 1 1144 5 view .LVU663
 2083 0020 2268     		ldr	r2, [r4]
 2084 0022 D368     		ldr	r3, [r2, #12]
 2085 0024 DBB2     		uxtb	r3, r3
 2086 0026 63F49063 		orn	r3, r3, #1152
 2087 002a D360     		str	r3, [r2, #12]
 2088 002c EFE7     		b	.L118
 2089              	.L122:
 2090 002e 00BF     		.align	2
 2091              	.L121:
 2092 0030 003C0140 		.word	1073822720
 2093              		.cfi_endproc
 2094              	.LFE253:
 2096              		.section	.text.HAL_RTCEx_PollForWakeUpTimerEvent,"ax",%progbits
 2097              		.align	1
 2098              		.global	HAL_RTCEx_PollForWakeUpTimerEvent
 2099              		.syntax unified
 2100              		.thumb
 2101              		.thumb_func
ARM GAS  /tmp/ccTwdjOX.s 			page 60


 2102              		.fpu fpv4-sp-d16
 2104              	HAL_RTCEx_PollForWakeUpTimerEvent:
 2105              	.LVL144:
 2106              	.LFB255:
1169:Drivers/STM32F4xx_HAL_Driver/Src/stm32f4xx_hal_rtc_ex.c **** 
1170:Drivers/STM32F4xx_HAL_Driver/Src/stm32f4xx_hal_rtc_ex.c **** /**
1171:Drivers/STM32F4xx_HAL_Driver/Src/stm32f4xx_hal_rtc_ex.c ****   * @brief  Handles Wakeup Timer Polling.
1172:Drivers/STM32F4xx_HAL_Driver/Src/stm32f4xx_hal_rtc_ex.c ****   * @param  hrtc pointer to a RTC_HandleTypeDef structure that contains
1173:Drivers/STM32F4xx_HAL_Driver/Src/stm32f4xx_hal_rtc_ex.c ****   *                the configuration information for RTC.
1174:Drivers/STM32F4xx_HAL_Driver/Src/stm32f4xx_hal_rtc_ex.c ****   * @param  Timeout Timeout duration
1175:Drivers/STM32F4xx_HAL_Driver/Src/stm32f4xx_hal_rtc_ex.c ****   * @retval HAL status
1176:Drivers/STM32F4xx_HAL_Driver/Src/stm32f4xx_hal_rtc_ex.c ****   */
1177:Drivers/STM32F4xx_HAL_Driver/Src/stm32f4xx_hal_rtc_ex.c **** HAL_StatusTypeDef HAL_RTCEx_PollForWakeUpTimerEvent(RTC_HandleTypeDef *hrtc, uint32_t Timeout)
1178:Drivers/STM32F4xx_HAL_Driver/Src/stm32f4xx_hal_rtc_ex.c **** {
 2107              		.loc 1 1178 1 view -0
 2108              		.cfi_startproc
 2109              		@ args = 0, pretend = 0, frame = 0
 2110              		@ frame_needed = 0, uses_anonymous_args = 0
 2111              		.loc 1 1178 1 is_stmt 0 view .LVU665
 2112 0000 70B5     		push	{r4, r5, r6, lr}
 2113              	.LCFI29:
 2114              		.cfi_def_cfa_offset 16
 2115              		.cfi_offset 4, -16
 2116              		.cfi_offset 5, -12
 2117              		.cfi_offset 6, -8
 2118              		.cfi_offset 14, -4
 2119 0002 0446     		mov	r4, r0
 2120 0004 0D46     		mov	r5, r1
1179:Drivers/STM32F4xx_HAL_Driver/Src/stm32f4xx_hal_rtc_ex.c ****   uint32_t tickstart = 0U;
 2121              		.loc 1 1179 3 is_stmt 1 view .LVU666
 2122              	.LVL145:
1180:Drivers/STM32F4xx_HAL_Driver/Src/stm32f4xx_hal_rtc_ex.c **** 
1181:Drivers/STM32F4xx_HAL_Driver/Src/stm32f4xx_hal_rtc_ex.c ****   /* Get tick */
1182:Drivers/STM32F4xx_HAL_Driver/Src/stm32f4xx_hal_rtc_ex.c ****   tickstart = HAL_GetTick();
 2123              		.loc 1 1182 3 view .LVU667
 2124              		.loc 1 1182 15 is_stmt 0 view .LVU668
 2125 0006 FFF7FEFF 		bl	HAL_GetTick
 2126              	.LVL146:
 2127              		.loc 1 1182 15 view .LVU669
 2128 000a 0646     		mov	r6, r0
 2129              	.LVL147:
1183:Drivers/STM32F4xx_HAL_Driver/Src/stm32f4xx_hal_rtc_ex.c **** 
1184:Drivers/STM32F4xx_HAL_Driver/Src/stm32f4xx_hal_rtc_ex.c ****   while (__HAL_RTC_WAKEUPTIMER_GET_FLAG(hrtc, RTC_FLAG_WUTF) == 0U)
 2130              		.loc 1 1184 3 is_stmt 1 view .LVU670
 2131              	.L125:
 2132              		.loc 1 1184 10 is_stmt 0 view .LVU671
 2133 000c 2368     		ldr	r3, [r4]
 2134 000e DA68     		ldr	r2, [r3, #12]
 2135              		.loc 1 1184 9 view .LVU672
 2136 0010 12F4806F 		tst	r2, #1024
 2137 0014 0BD1     		bne	.L130
1185:Drivers/STM32F4xx_HAL_Driver/Src/stm32f4xx_hal_rtc_ex.c ****   {
1186:Drivers/STM32F4xx_HAL_Driver/Src/stm32f4xx_hal_rtc_ex.c ****     if (Timeout != HAL_MAX_DELAY)
 2138              		.loc 1 1186 5 is_stmt 1 view .LVU673
 2139              		.loc 1 1186 8 is_stmt 0 view .LVU674
 2140 0016 B5F1FF3F 		cmp	r5, #-1
 2141 001a F7D0     		beq	.L125
ARM GAS  /tmp/ccTwdjOX.s 			page 61


1187:Drivers/STM32F4xx_HAL_Driver/Src/stm32f4xx_hal_rtc_ex.c ****     {
1188:Drivers/STM32F4xx_HAL_Driver/Src/stm32f4xx_hal_rtc_ex.c ****       if ((Timeout == 0U) || ((HAL_GetTick() - tickstart) > Timeout))
 2142              		.loc 1 1188 7 is_stmt 1 view .LVU675
 2143              		.loc 1 1188 10 is_stmt 0 view .LVU676
 2144 001c 25B1     		cbz	r5, .L126
 2145              		.loc 1 1188 32 discriminator 1 view .LVU677
 2146 001e FFF7FEFF 		bl	HAL_GetTick
 2147              	.LVL148:
 2148              		.loc 1 1188 46 discriminator 1 view .LVU678
 2149 0022 801B     		subs	r0, r0, r6
 2150              		.loc 1 1188 27 discriminator 1 view .LVU679
 2151 0024 A842     		cmp	r0, r5
 2152 0026 F1D9     		bls	.L125
 2153              	.L126:
1189:Drivers/STM32F4xx_HAL_Driver/Src/stm32f4xx_hal_rtc_ex.c ****       {
1190:Drivers/STM32F4xx_HAL_Driver/Src/stm32f4xx_hal_rtc_ex.c ****         hrtc->State = HAL_RTC_STATE_TIMEOUT;
 2154              		.loc 1 1190 9 is_stmt 1 view .LVU680
 2155              		.loc 1 1190 21 is_stmt 0 view .LVU681
 2156 0028 0320     		movs	r0, #3
 2157 002a 6077     		strb	r0, [r4, #29]
1191:Drivers/STM32F4xx_HAL_Driver/Src/stm32f4xx_hal_rtc_ex.c ****         return HAL_TIMEOUT;
 2158              		.loc 1 1191 9 is_stmt 1 view .LVU682
 2159              		.loc 1 1191 16 is_stmt 0 view .LVU683
 2160 002c 07E0     		b	.L127
 2161              	.L130:
1192:Drivers/STM32F4xx_HAL_Driver/Src/stm32f4xx_hal_rtc_ex.c ****       }
1193:Drivers/STM32F4xx_HAL_Driver/Src/stm32f4xx_hal_rtc_ex.c ****     }
1194:Drivers/STM32F4xx_HAL_Driver/Src/stm32f4xx_hal_rtc_ex.c ****   }
1195:Drivers/STM32F4xx_HAL_Driver/Src/stm32f4xx_hal_rtc_ex.c **** 
1196:Drivers/STM32F4xx_HAL_Driver/Src/stm32f4xx_hal_rtc_ex.c ****   /* Clear the Wakeup timer Flag */
1197:Drivers/STM32F4xx_HAL_Driver/Src/stm32f4xx_hal_rtc_ex.c ****   __HAL_RTC_WAKEUPTIMER_CLEAR_FLAG(hrtc, RTC_FLAG_WUTF);
 2162              		.loc 1 1197 3 is_stmt 1 view .LVU684
 2163 002e DA68     		ldr	r2, [r3, #12]
 2164 0030 D2B2     		uxtb	r2, r2
 2165 0032 62F49062 		orn	r2, r2, #1152
 2166 0036 DA60     		str	r2, [r3, #12]
1198:Drivers/STM32F4xx_HAL_Driver/Src/stm32f4xx_hal_rtc_ex.c **** 
1199:Drivers/STM32F4xx_HAL_Driver/Src/stm32f4xx_hal_rtc_ex.c ****   /* Change RTC state */
1200:Drivers/STM32F4xx_HAL_Driver/Src/stm32f4xx_hal_rtc_ex.c ****   hrtc->State = HAL_RTC_STATE_READY;
 2167              		.loc 1 1200 3 view .LVU685
 2168              		.loc 1 1200 15 is_stmt 0 view .LVU686
 2169 0038 0123     		movs	r3, #1
 2170 003a 6377     		strb	r3, [r4, #29]
1201:Drivers/STM32F4xx_HAL_Driver/Src/stm32f4xx_hal_rtc_ex.c **** 
1202:Drivers/STM32F4xx_HAL_Driver/Src/stm32f4xx_hal_rtc_ex.c ****   return HAL_OK;
 2171              		.loc 1 1202 3 is_stmt 1 view .LVU687
 2172              		.loc 1 1202 10 is_stmt 0 view .LVU688
 2173 003c 0020     		movs	r0, #0
 2174              	.L127:
1203:Drivers/STM32F4xx_HAL_Driver/Src/stm32f4xx_hal_rtc_ex.c **** }
 2175              		.loc 1 1203 1 view .LVU689
 2176 003e 70BD     		pop	{r4, r5, r6, pc}
 2177              		.loc 1 1203 1 view .LVU690
 2178              		.cfi_endproc
 2179              	.LFE255:
 2181              		.section	.text.HAL_RTCEx_BKUPWrite,"ax",%progbits
 2182              		.align	1
ARM GAS  /tmp/ccTwdjOX.s 			page 62


 2183              		.global	HAL_RTCEx_BKUPWrite
 2184              		.syntax unified
 2185              		.thumb
 2186              		.thumb_func
 2187              		.fpu fpv4-sp-d16
 2189              	HAL_RTCEx_BKUPWrite:
 2190              	.LVL149:
 2191              	.LFB256:
1204:Drivers/STM32F4xx_HAL_Driver/Src/stm32f4xx_hal_rtc_ex.c **** 
1205:Drivers/STM32F4xx_HAL_Driver/Src/stm32f4xx_hal_rtc_ex.c **** /**
1206:Drivers/STM32F4xx_HAL_Driver/Src/stm32f4xx_hal_rtc_ex.c ****   * @}
1207:Drivers/STM32F4xx_HAL_Driver/Src/stm32f4xx_hal_rtc_ex.c ****   */
1208:Drivers/STM32F4xx_HAL_Driver/Src/stm32f4xx_hal_rtc_ex.c **** 
1209:Drivers/STM32F4xx_HAL_Driver/Src/stm32f4xx_hal_rtc_ex.c **** /** @defgroup RTCEx_Exported_Functions_Group3 Extended Peripheral Control functions
1210:Drivers/STM32F4xx_HAL_Driver/Src/stm32f4xx_hal_rtc_ex.c ****   * @brief    Extended Peripheral Control functions
1211:Drivers/STM32F4xx_HAL_Driver/Src/stm32f4xx_hal_rtc_ex.c ****   *
1212:Drivers/STM32F4xx_HAL_Driver/Src/stm32f4xx_hal_rtc_ex.c **** @verbatim
1213:Drivers/STM32F4xx_HAL_Driver/Src/stm32f4xx_hal_rtc_ex.c ****  ===============================================================================
1214:Drivers/STM32F4xx_HAL_Driver/Src/stm32f4xx_hal_rtc_ex.c ****               ##### Extended Peripheral Control functions #####
1215:Drivers/STM32F4xx_HAL_Driver/Src/stm32f4xx_hal_rtc_ex.c ****  ===============================================================================
1216:Drivers/STM32F4xx_HAL_Driver/Src/stm32f4xx_hal_rtc_ex.c ****     [..]
1217:Drivers/STM32F4xx_HAL_Driver/Src/stm32f4xx_hal_rtc_ex.c ****     This subsection provides functions allowing to
1218:Drivers/STM32F4xx_HAL_Driver/Src/stm32f4xx_hal_rtc_ex.c ****       (+) Write a data in a specified RTC Backup data register
1219:Drivers/STM32F4xx_HAL_Driver/Src/stm32f4xx_hal_rtc_ex.c ****       (+) Read a data in a specified RTC Backup data register
1220:Drivers/STM32F4xx_HAL_Driver/Src/stm32f4xx_hal_rtc_ex.c ****       (+) Set the Coarse calibration parameters.
1221:Drivers/STM32F4xx_HAL_Driver/Src/stm32f4xx_hal_rtc_ex.c ****       (+) Deactivate the Coarse calibration parameters
1222:Drivers/STM32F4xx_HAL_Driver/Src/stm32f4xx_hal_rtc_ex.c ****       (+) Set the Smooth calibration parameters.
1223:Drivers/STM32F4xx_HAL_Driver/Src/stm32f4xx_hal_rtc_ex.c ****       (+) Configure the Synchronization Shift Control Settings.
1224:Drivers/STM32F4xx_HAL_Driver/Src/stm32f4xx_hal_rtc_ex.c ****       (+) Configure the Calibration Pinout (RTC_CALIB) Selection (1Hz or 512Hz).
1225:Drivers/STM32F4xx_HAL_Driver/Src/stm32f4xx_hal_rtc_ex.c ****       (+) Deactivate the Calibration Pinout (RTC_CALIB) Selection (1Hz or 512Hz).
1226:Drivers/STM32F4xx_HAL_Driver/Src/stm32f4xx_hal_rtc_ex.c ****       (+) Enable the RTC reference clock detection.
1227:Drivers/STM32F4xx_HAL_Driver/Src/stm32f4xx_hal_rtc_ex.c ****       (+) Disable the RTC reference clock detection.
1228:Drivers/STM32F4xx_HAL_Driver/Src/stm32f4xx_hal_rtc_ex.c ****       (+) Enable the Bypass Shadow feature.
1229:Drivers/STM32F4xx_HAL_Driver/Src/stm32f4xx_hal_rtc_ex.c ****       (+) Disable the Bypass Shadow feature.
1230:Drivers/STM32F4xx_HAL_Driver/Src/stm32f4xx_hal_rtc_ex.c **** 
1231:Drivers/STM32F4xx_HAL_Driver/Src/stm32f4xx_hal_rtc_ex.c **** @endverbatim
1232:Drivers/STM32F4xx_HAL_Driver/Src/stm32f4xx_hal_rtc_ex.c ****   * @{
1233:Drivers/STM32F4xx_HAL_Driver/Src/stm32f4xx_hal_rtc_ex.c ****   */
1234:Drivers/STM32F4xx_HAL_Driver/Src/stm32f4xx_hal_rtc_ex.c **** 
1235:Drivers/STM32F4xx_HAL_Driver/Src/stm32f4xx_hal_rtc_ex.c **** /**
1236:Drivers/STM32F4xx_HAL_Driver/Src/stm32f4xx_hal_rtc_ex.c ****   * @brief  Writes a data in a specified RTC Backup data register.
1237:Drivers/STM32F4xx_HAL_Driver/Src/stm32f4xx_hal_rtc_ex.c ****   * @param  hrtc pointer to a RTC_HandleTypeDef structure that contains
1238:Drivers/STM32F4xx_HAL_Driver/Src/stm32f4xx_hal_rtc_ex.c ****   *                the configuration information for RTC.
1239:Drivers/STM32F4xx_HAL_Driver/Src/stm32f4xx_hal_rtc_ex.c ****   * @param  BackupRegister RTC Backup data Register number.
1240:Drivers/STM32F4xx_HAL_Driver/Src/stm32f4xx_hal_rtc_ex.c ****   *          This parameter can be: RTC_BKP_DRx (where x can be from 0 to 19)
1241:Drivers/STM32F4xx_HAL_Driver/Src/stm32f4xx_hal_rtc_ex.c ****   *                                 to specify the register.
1242:Drivers/STM32F4xx_HAL_Driver/Src/stm32f4xx_hal_rtc_ex.c ****   * @param  Data Data to be written in the specified RTC Backup data register.
1243:Drivers/STM32F4xx_HAL_Driver/Src/stm32f4xx_hal_rtc_ex.c ****   * @retval None
1244:Drivers/STM32F4xx_HAL_Driver/Src/stm32f4xx_hal_rtc_ex.c ****   */
1245:Drivers/STM32F4xx_HAL_Driver/Src/stm32f4xx_hal_rtc_ex.c **** void HAL_RTCEx_BKUPWrite(RTC_HandleTypeDef *hrtc, uint32_t BackupRegister, uint32_t Data)
1246:Drivers/STM32F4xx_HAL_Driver/Src/stm32f4xx_hal_rtc_ex.c **** {
 2192              		.loc 1 1246 1 is_stmt 1 view -0
 2193              		.cfi_startproc
 2194              		@ args = 0, pretend = 0, frame = 0
 2195              		@ frame_needed = 0, uses_anonymous_args = 0
 2196              		@ link register save eliminated.
1247:Drivers/STM32F4xx_HAL_Driver/Src/stm32f4xx_hal_rtc_ex.c ****   uint32_t tmp = 0U;
ARM GAS  /tmp/ccTwdjOX.s 			page 63


 2197              		.loc 1 1247 3 view .LVU692
1248:Drivers/STM32F4xx_HAL_Driver/Src/stm32f4xx_hal_rtc_ex.c **** 
1249:Drivers/STM32F4xx_HAL_Driver/Src/stm32f4xx_hal_rtc_ex.c ****   /* Check the parameters */
1250:Drivers/STM32F4xx_HAL_Driver/Src/stm32f4xx_hal_rtc_ex.c ****   assert_param(IS_RTC_BKP(BackupRegister));
 2198              		.loc 1 1250 3 view .LVU693
1251:Drivers/STM32F4xx_HAL_Driver/Src/stm32f4xx_hal_rtc_ex.c **** 
1252:Drivers/STM32F4xx_HAL_Driver/Src/stm32f4xx_hal_rtc_ex.c ****   tmp = (uint32_t) & (hrtc->Instance->BKP0R);
 2199              		.loc 1 1252 3 view .LVU694
 2200              		.loc 1 1252 27 is_stmt 0 view .LVU695
 2201 0000 0368     		ldr	r3, [r0]
 2202              		.loc 1 1252 20 view .LVU696
 2203 0002 5033     		adds	r3, r3, #80
 2204              	.LVL150:
1253:Drivers/STM32F4xx_HAL_Driver/Src/stm32f4xx_hal_rtc_ex.c ****   tmp += (BackupRegister * 4U);
 2205              		.loc 1 1253 3 is_stmt 1 view .LVU697
1254:Drivers/STM32F4xx_HAL_Driver/Src/stm32f4xx_hal_rtc_ex.c **** 
1255:Drivers/STM32F4xx_HAL_Driver/Src/stm32f4xx_hal_rtc_ex.c ****   /* Write the specified register */
1256:Drivers/STM32F4xx_HAL_Driver/Src/stm32f4xx_hal_rtc_ex.c ****   *(__IO uint32_t *)tmp = (uint32_t)Data;
 2206              		.loc 1 1256 3 view .LVU698
 2207              		.loc 1 1256 25 is_stmt 0 view .LVU699
 2208 0004 43F82120 		str	r2, [r3, r1, lsl #2]
1257:Drivers/STM32F4xx_HAL_Driver/Src/stm32f4xx_hal_rtc_ex.c **** }
 2209              		.loc 1 1257 1 view .LVU700
 2210 0008 7047     		bx	lr
 2211              		.cfi_endproc
 2212              	.LFE256:
 2214              		.section	.text.HAL_RTCEx_BKUPRead,"ax",%progbits
 2215              		.align	1
 2216              		.global	HAL_RTCEx_BKUPRead
 2217              		.syntax unified
 2218              		.thumb
 2219              		.thumb_func
 2220              		.fpu fpv4-sp-d16
 2222              	HAL_RTCEx_BKUPRead:
 2223              	.LVL151:
 2224              	.LFB257:
1258:Drivers/STM32F4xx_HAL_Driver/Src/stm32f4xx_hal_rtc_ex.c **** 
1259:Drivers/STM32F4xx_HAL_Driver/Src/stm32f4xx_hal_rtc_ex.c **** /**
1260:Drivers/STM32F4xx_HAL_Driver/Src/stm32f4xx_hal_rtc_ex.c ****   * @brief  Reads data from the specified RTC Backup data Register.
1261:Drivers/STM32F4xx_HAL_Driver/Src/stm32f4xx_hal_rtc_ex.c ****   * @param  hrtc pointer to a RTC_HandleTypeDef structure that contains
1262:Drivers/STM32F4xx_HAL_Driver/Src/stm32f4xx_hal_rtc_ex.c ****   *                the configuration information for RTC.
1263:Drivers/STM32F4xx_HAL_Driver/Src/stm32f4xx_hal_rtc_ex.c ****   * @param  BackupRegister RTC Backup data Register number.
1264:Drivers/STM32F4xx_HAL_Driver/Src/stm32f4xx_hal_rtc_ex.c ****   *          This parameter can be: RTC_BKP_DRx (where x can be from 0 to 19)
1265:Drivers/STM32F4xx_HAL_Driver/Src/stm32f4xx_hal_rtc_ex.c ****   *                                 to specify the register.
1266:Drivers/STM32F4xx_HAL_Driver/Src/stm32f4xx_hal_rtc_ex.c ****   * @retval Read value
1267:Drivers/STM32F4xx_HAL_Driver/Src/stm32f4xx_hal_rtc_ex.c ****   */
1268:Drivers/STM32F4xx_HAL_Driver/Src/stm32f4xx_hal_rtc_ex.c **** uint32_t HAL_RTCEx_BKUPRead(RTC_HandleTypeDef *hrtc, uint32_t BackupRegister)
1269:Drivers/STM32F4xx_HAL_Driver/Src/stm32f4xx_hal_rtc_ex.c **** {
 2225              		.loc 1 1269 1 is_stmt 1 view -0
 2226              		.cfi_startproc
 2227              		@ args = 0, pretend = 0, frame = 0
 2228              		@ frame_needed = 0, uses_anonymous_args = 0
 2229              		@ link register save eliminated.
1270:Drivers/STM32F4xx_HAL_Driver/Src/stm32f4xx_hal_rtc_ex.c ****   uint32_t tmp = 0U;
 2230              		.loc 1 1270 3 view .LVU702
1271:Drivers/STM32F4xx_HAL_Driver/Src/stm32f4xx_hal_rtc_ex.c **** 
1272:Drivers/STM32F4xx_HAL_Driver/Src/stm32f4xx_hal_rtc_ex.c ****   /* Check the parameters */
ARM GAS  /tmp/ccTwdjOX.s 			page 64


1273:Drivers/STM32F4xx_HAL_Driver/Src/stm32f4xx_hal_rtc_ex.c ****   assert_param(IS_RTC_BKP(BackupRegister));
 2231              		.loc 1 1273 3 view .LVU703
1274:Drivers/STM32F4xx_HAL_Driver/Src/stm32f4xx_hal_rtc_ex.c **** 
1275:Drivers/STM32F4xx_HAL_Driver/Src/stm32f4xx_hal_rtc_ex.c ****   tmp = (uint32_t) & (hrtc->Instance->BKP0R);
 2232              		.loc 1 1275 3 view .LVU704
 2233              		.loc 1 1275 27 is_stmt 0 view .LVU705
 2234 0000 0368     		ldr	r3, [r0]
 2235              		.loc 1 1275 20 view .LVU706
 2236 0002 5033     		adds	r3, r3, #80
 2237              	.LVL152:
1276:Drivers/STM32F4xx_HAL_Driver/Src/stm32f4xx_hal_rtc_ex.c ****   tmp += (BackupRegister * 4U);
 2238              		.loc 1 1276 3 is_stmt 1 view .LVU707
1277:Drivers/STM32F4xx_HAL_Driver/Src/stm32f4xx_hal_rtc_ex.c **** 
1278:Drivers/STM32F4xx_HAL_Driver/Src/stm32f4xx_hal_rtc_ex.c ****   /* Read the specified register */
1279:Drivers/STM32F4xx_HAL_Driver/Src/stm32f4xx_hal_rtc_ex.c ****   return (*(__IO uint32_t *)tmp);
 2239              		.loc 1 1279 3 view .LVU708
 2240              		.loc 1 1279 11 is_stmt 0 view .LVU709
 2241 0004 53F82100 		ldr	r0, [r3, r1, lsl #2]
 2242              	.LVL153:
1280:Drivers/STM32F4xx_HAL_Driver/Src/stm32f4xx_hal_rtc_ex.c **** }
 2243              		.loc 1 1280 1 view .LVU710
 2244 0008 7047     		bx	lr
 2245              		.cfi_endproc
 2246              	.LFE257:
 2248              		.section	.text.HAL_RTCEx_SetCoarseCalib,"ax",%progbits
 2249              		.align	1
 2250              		.global	HAL_RTCEx_SetCoarseCalib
 2251              		.syntax unified
 2252              		.thumb
 2253              		.thumb_func
 2254              		.fpu fpv4-sp-d16
 2256              	HAL_RTCEx_SetCoarseCalib:
 2257              	.LVL154:
 2258              	.LFB258:
1281:Drivers/STM32F4xx_HAL_Driver/Src/stm32f4xx_hal_rtc_ex.c **** 
1282:Drivers/STM32F4xx_HAL_Driver/Src/stm32f4xx_hal_rtc_ex.c **** /**
1283:Drivers/STM32F4xx_HAL_Driver/Src/stm32f4xx_hal_rtc_ex.c ****   * @brief  Sets the Coarse calibration parameters.
1284:Drivers/STM32F4xx_HAL_Driver/Src/stm32f4xx_hal_rtc_ex.c ****   * @param  hrtc pointer to a RTC_HandleTypeDef structure that contains
1285:Drivers/STM32F4xx_HAL_Driver/Src/stm32f4xx_hal_rtc_ex.c ****   *                the configuration information for RTC.
1286:Drivers/STM32F4xx_HAL_Driver/Src/stm32f4xx_hal_rtc_ex.c ****   * @param  CalibSign Specifies the sign of the coarse calibration value.
1287:Drivers/STM32F4xx_HAL_Driver/Src/stm32f4xx_hal_rtc_ex.c ****   *          This parameter can be  one of the following values:
1288:Drivers/STM32F4xx_HAL_Driver/Src/stm32f4xx_hal_rtc_ex.c ****   *             @arg RTC_CALIBSIGN_POSITIVE: The value sign is positive
1289:Drivers/STM32F4xx_HAL_Driver/Src/stm32f4xx_hal_rtc_ex.c ****   *             @arg RTC_CALIBSIGN_NEGATIVE: The value sign is negative
1290:Drivers/STM32F4xx_HAL_Driver/Src/stm32f4xx_hal_rtc_ex.c ****   * @param  Value value of coarse calibration expressed in ppm (coded on 5 bits).
1291:Drivers/STM32F4xx_HAL_Driver/Src/stm32f4xx_hal_rtc_ex.c ****   *
1292:Drivers/STM32F4xx_HAL_Driver/Src/stm32f4xx_hal_rtc_ex.c ****   * @note   This Calibration value should be between 0 and 63 when using negative
1293:Drivers/STM32F4xx_HAL_Driver/Src/stm32f4xx_hal_rtc_ex.c ****   *         sign with a 2-ppm step.
1294:Drivers/STM32F4xx_HAL_Driver/Src/stm32f4xx_hal_rtc_ex.c ****   *
1295:Drivers/STM32F4xx_HAL_Driver/Src/stm32f4xx_hal_rtc_ex.c ****   * @note   This Calibration value should be between 0 and 126 when using positive
1296:Drivers/STM32F4xx_HAL_Driver/Src/stm32f4xx_hal_rtc_ex.c ****   *         sign with a 4-ppm step.
1297:Drivers/STM32F4xx_HAL_Driver/Src/stm32f4xx_hal_rtc_ex.c ****   * @retval HAL status
1298:Drivers/STM32F4xx_HAL_Driver/Src/stm32f4xx_hal_rtc_ex.c ****   */
1299:Drivers/STM32F4xx_HAL_Driver/Src/stm32f4xx_hal_rtc_ex.c **** HAL_StatusTypeDef HAL_RTCEx_SetCoarseCalib(RTC_HandleTypeDef *hrtc, uint32_t CalibSign, uint32_t Va
1300:Drivers/STM32F4xx_HAL_Driver/Src/stm32f4xx_hal_rtc_ex.c **** {
 2259              		.loc 1 1300 1 is_stmt 1 view -0
 2260              		.cfi_startproc
 2261              		@ args = 0, pretend = 0, frame = 0
ARM GAS  /tmp/ccTwdjOX.s 			page 65


 2262              		@ frame_needed = 0, uses_anonymous_args = 0
1301:Drivers/STM32F4xx_HAL_Driver/Src/stm32f4xx_hal_rtc_ex.c ****   HAL_StatusTypeDef status;
 2263              		.loc 1 1301 3 view .LVU712
1302:Drivers/STM32F4xx_HAL_Driver/Src/stm32f4xx_hal_rtc_ex.c **** 
1303:Drivers/STM32F4xx_HAL_Driver/Src/stm32f4xx_hal_rtc_ex.c ****   /* Check the parameters */
1304:Drivers/STM32F4xx_HAL_Driver/Src/stm32f4xx_hal_rtc_ex.c ****   assert_param(IS_RTC_CALIB_SIGN(CalibSign));
 2264              		.loc 1 1304 3 view .LVU713
1305:Drivers/STM32F4xx_HAL_Driver/Src/stm32f4xx_hal_rtc_ex.c ****   assert_param(IS_RTC_CALIB_VALUE(Value));
 2265              		.loc 1 1305 3 view .LVU714
1306:Drivers/STM32F4xx_HAL_Driver/Src/stm32f4xx_hal_rtc_ex.c **** 
1307:Drivers/STM32F4xx_HAL_Driver/Src/stm32f4xx_hal_rtc_ex.c ****   /* Process Locked */
1308:Drivers/STM32F4xx_HAL_Driver/Src/stm32f4xx_hal_rtc_ex.c ****   __HAL_LOCK(hrtc);
 2266              		.loc 1 1308 3 view .LVU715
 2267              		.loc 1 1308 3 view .LVU716
 2268 0000 037F     		ldrb	r3, [r0, #28]	@ zero_extendqisi2
 2269 0002 012B     		cmp	r3, #1
 2270 0004 28D0     		beq	.L137
1300:Drivers/STM32F4xx_HAL_Driver/Src/stm32f4xx_hal_rtc_ex.c ****   HAL_StatusTypeDef status;
 2271              		.loc 1 1300 1 is_stmt 0 discriminator 2 view .LVU717
 2272 0006 70B5     		push	{r4, r5, r6, lr}
 2273              	.LCFI30:
 2274              		.cfi_def_cfa_offset 16
 2275              		.cfi_offset 4, -16
 2276              		.cfi_offset 5, -12
 2277              		.cfi_offset 6, -8
 2278              		.cfi_offset 14, -4
 2279 0008 1646     		mov	r6, r2
 2280 000a 0D46     		mov	r5, r1
 2281 000c 0446     		mov	r4, r0
 2282              		.loc 1 1308 3 is_stmt 1 discriminator 2 view .LVU718
 2283 000e 0123     		movs	r3, #1
 2284 0010 0377     		strb	r3, [r0, #28]
1309:Drivers/STM32F4xx_HAL_Driver/Src/stm32f4xx_hal_rtc_ex.c **** 
1310:Drivers/STM32F4xx_HAL_Driver/Src/stm32f4xx_hal_rtc_ex.c ****   hrtc->State = HAL_RTC_STATE_BUSY;
 2285              		.loc 1 1310 3 discriminator 2 view .LVU719
 2286              		.loc 1 1310 15 is_stmt 0 discriminator 2 view .LVU720
 2287 0012 0223     		movs	r3, #2
 2288 0014 4377     		strb	r3, [r0, #29]
1311:Drivers/STM32F4xx_HAL_Driver/Src/stm32f4xx_hal_rtc_ex.c **** 
1312:Drivers/STM32F4xx_HAL_Driver/Src/stm32f4xx_hal_rtc_ex.c ****   /* Disable the write protection for RTC registers */
1313:Drivers/STM32F4xx_HAL_Driver/Src/stm32f4xx_hal_rtc_ex.c ****   __HAL_RTC_WRITEPROTECTION_DISABLE(hrtc);
 2289              		.loc 1 1313 3 is_stmt 1 discriminator 2 view .LVU721
 2290              		.loc 1 1313 3 discriminator 2 view .LVU722
 2291 0016 0368     		ldr	r3, [r0]
 2292 0018 CA22     		movs	r2, #202
 2293              	.LVL155:
 2294              		.loc 1 1313 3 is_stmt 0 discriminator 2 view .LVU723
 2295 001a 5A62     		str	r2, [r3, #36]
 2296              		.loc 1 1313 3 is_stmt 1 discriminator 2 view .LVU724
 2297 001c 0368     		ldr	r3, [r0]
 2298 001e 5322     		movs	r2, #83
 2299 0020 5A62     		str	r2, [r3, #36]
1314:Drivers/STM32F4xx_HAL_Driver/Src/stm32f4xx_hal_rtc_ex.c **** 
1315:Drivers/STM32F4xx_HAL_Driver/Src/stm32f4xx_hal_rtc_ex.c ****   /* Enter Initialization mode */
1316:Drivers/STM32F4xx_HAL_Driver/Src/stm32f4xx_hal_rtc_ex.c ****   status = RTC_EnterInitMode(hrtc);
 2300              		.loc 1 1316 3 discriminator 2 view .LVU725
 2301              		.loc 1 1316 12 is_stmt 0 discriminator 2 view .LVU726
ARM GAS  /tmp/ccTwdjOX.s 			page 66


 2302 0022 FFF7FEFF 		bl	RTC_EnterInitMode
 2303              	.LVL156:
1317:Drivers/STM32F4xx_HAL_Driver/Src/stm32f4xx_hal_rtc_ex.c **** 
1318:Drivers/STM32F4xx_HAL_Driver/Src/stm32f4xx_hal_rtc_ex.c ****   if (status == HAL_OK)
 2304              		.loc 1 1318 3 is_stmt 1 discriminator 2 view .LVU727
 2305              		.loc 1 1318 6 is_stmt 0 discriminator 2 view .LVU728
 2306 0026 0346     		mov	r3, r0
 2307 0028 48B1     		cbz	r0, .L142
 2308              	.LVL157:
 2309              	.L135:
1319:Drivers/STM32F4xx_HAL_Driver/Src/stm32f4xx_hal_rtc_ex.c ****   {
1320:Drivers/STM32F4xx_HAL_Driver/Src/stm32f4xx_hal_rtc_ex.c ****     /* Enable the Coarse Calibration */
1321:Drivers/STM32F4xx_HAL_Driver/Src/stm32f4xx_hal_rtc_ex.c ****     __HAL_RTC_COARSE_CALIB_ENABLE(hrtc);
1322:Drivers/STM32F4xx_HAL_Driver/Src/stm32f4xx_hal_rtc_ex.c **** 
1323:Drivers/STM32F4xx_HAL_Driver/Src/stm32f4xx_hal_rtc_ex.c ****     /* Set the coarse calibration value */
1324:Drivers/STM32F4xx_HAL_Driver/Src/stm32f4xx_hal_rtc_ex.c ****     hrtc->Instance->CALIBR = (uint32_t)(CalibSign | Value);
1325:Drivers/STM32F4xx_HAL_Driver/Src/stm32f4xx_hal_rtc_ex.c **** 
1326:Drivers/STM32F4xx_HAL_Driver/Src/stm32f4xx_hal_rtc_ex.c ****     /* Exit Initialization mode */
1327:Drivers/STM32F4xx_HAL_Driver/Src/stm32f4xx_hal_rtc_ex.c ****     status = RTC_ExitInitMode(hrtc);
1328:Drivers/STM32F4xx_HAL_Driver/Src/stm32f4xx_hal_rtc_ex.c ****   }
1329:Drivers/STM32F4xx_HAL_Driver/Src/stm32f4xx_hal_rtc_ex.c **** 
1330:Drivers/STM32F4xx_HAL_Driver/Src/stm32f4xx_hal_rtc_ex.c ****   if (status == HAL_OK)
 2310              		.loc 1 1330 3 is_stmt 1 view .LVU729
 2311              		.loc 1 1330 6 is_stmt 0 view .LVU730
 2312 002a 0BB9     		cbnz	r3, .L136
1331:Drivers/STM32F4xx_HAL_Driver/Src/stm32f4xx_hal_rtc_ex.c ****   {
1332:Drivers/STM32F4xx_HAL_Driver/Src/stm32f4xx_hal_rtc_ex.c ****     hrtc->State = HAL_RTC_STATE_READY;
 2313              		.loc 1 1332 5 is_stmt 1 view .LVU731
 2314              		.loc 1 1332 17 is_stmt 0 view .LVU732
 2315 002c 0122     		movs	r2, #1
 2316 002e 6277     		strb	r2, [r4, #29]
 2317              	.L136:
1333:Drivers/STM32F4xx_HAL_Driver/Src/stm32f4xx_hal_rtc_ex.c ****   }
1334:Drivers/STM32F4xx_HAL_Driver/Src/stm32f4xx_hal_rtc_ex.c **** 
1335:Drivers/STM32F4xx_HAL_Driver/Src/stm32f4xx_hal_rtc_ex.c ****   /* Enable the write protection for RTC registers */
1336:Drivers/STM32F4xx_HAL_Driver/Src/stm32f4xx_hal_rtc_ex.c ****   __HAL_RTC_WRITEPROTECTION_ENABLE(hrtc);
 2318              		.loc 1 1336 3 is_stmt 1 view .LVU733
 2319              		.loc 1 1336 3 view .LVU734
 2320 0030 2268     		ldr	r2, [r4]
 2321 0032 FF21     		movs	r1, #255
 2322 0034 5162     		str	r1, [r2, #36]
1337:Drivers/STM32F4xx_HAL_Driver/Src/stm32f4xx_hal_rtc_ex.c **** 
1338:Drivers/STM32F4xx_HAL_Driver/Src/stm32f4xx_hal_rtc_ex.c ****   /* Process Unlocked */
1339:Drivers/STM32F4xx_HAL_Driver/Src/stm32f4xx_hal_rtc_ex.c ****   __HAL_UNLOCK(hrtc);
 2323              		.loc 1 1339 3 view .LVU735
 2324              		.loc 1 1339 3 view .LVU736
 2325 0036 0022     		movs	r2, #0
 2326 0038 2277     		strb	r2, [r4, #28]
1340:Drivers/STM32F4xx_HAL_Driver/Src/stm32f4xx_hal_rtc_ex.c **** 
1341:Drivers/STM32F4xx_HAL_Driver/Src/stm32f4xx_hal_rtc_ex.c ****   return status;
 2327              		.loc 1 1341 3 view .LVU737
1342:Drivers/STM32F4xx_HAL_Driver/Src/stm32f4xx_hal_rtc_ex.c **** }
 2328              		.loc 1 1342 1 is_stmt 0 view .LVU738
 2329 003a 1846     		mov	r0, r3
 2330 003c 70BD     		pop	{r4, r5, r6, pc}
 2331              	.LVL158:
 2332              	.L142:
ARM GAS  /tmp/ccTwdjOX.s 			page 67


1321:Drivers/STM32F4xx_HAL_Driver/Src/stm32f4xx_hal_rtc_ex.c **** 
 2333              		.loc 1 1321 5 is_stmt 1 view .LVU739
 2334 003e 2268     		ldr	r2, [r4]
 2335 0040 9368     		ldr	r3, [r2, #8]
 2336 0042 43F08003 		orr	r3, r3, #128
 2337 0046 9360     		str	r3, [r2, #8]
1324:Drivers/STM32F4xx_HAL_Driver/Src/stm32f4xx_hal_rtc_ex.c **** 
 2338              		.loc 1 1324 5 view .LVU740
1324:Drivers/STM32F4xx_HAL_Driver/Src/stm32f4xx_hal_rtc_ex.c **** 
 2339              		.loc 1 1324 9 is_stmt 0 view .LVU741
 2340 0048 2368     		ldr	r3, [r4]
1324:Drivers/STM32F4xx_HAL_Driver/Src/stm32f4xx_hal_rtc_ex.c **** 
 2341              		.loc 1 1324 51 view .LVU742
 2342 004a 3543     		orrs	r5, r5, r6
 2343              	.LVL159:
1324:Drivers/STM32F4xx_HAL_Driver/Src/stm32f4xx_hal_rtc_ex.c **** 
 2344              		.loc 1 1324 28 view .LVU743
 2345 004c 9D61     		str	r5, [r3, #24]
1327:Drivers/STM32F4xx_HAL_Driver/Src/stm32f4xx_hal_rtc_ex.c ****   }
 2346              		.loc 1 1327 5 is_stmt 1 view .LVU744
1327:Drivers/STM32F4xx_HAL_Driver/Src/stm32f4xx_hal_rtc_ex.c ****   }
 2347              		.loc 1 1327 14 is_stmt 0 view .LVU745
 2348 004e 2046     		mov	r0, r4
 2349              	.LVL160:
1327:Drivers/STM32F4xx_HAL_Driver/Src/stm32f4xx_hal_rtc_ex.c ****   }
 2350              		.loc 1 1327 14 view .LVU746
 2351 0050 FFF7FEFF 		bl	RTC_ExitInitMode
 2352              	.LVL161:
 2353 0054 0346     		mov	r3, r0
 2354              	.LVL162:
1327:Drivers/STM32F4xx_HAL_Driver/Src/stm32f4xx_hal_rtc_ex.c ****   }
 2355              		.loc 1 1327 14 view .LVU747
 2356 0056 E8E7     		b	.L135
 2357              	.LVL163:
 2358              	.L137:
 2359              	.LCFI31:
 2360              		.cfi_def_cfa_offset 0
 2361              		.cfi_restore 4
 2362              		.cfi_restore 5
 2363              		.cfi_restore 6
 2364              		.cfi_restore 14
1308:Drivers/STM32F4xx_HAL_Driver/Src/stm32f4xx_hal_rtc_ex.c **** 
 2365              		.loc 1 1308 3 view .LVU748
 2366 0058 0223     		movs	r3, #2
 2367              		.loc 1 1342 1 view .LVU749
 2368 005a 1846     		mov	r0, r3
 2369              	.LVL164:
 2370              		.loc 1 1342 1 view .LVU750
 2371 005c 7047     		bx	lr
 2372              		.cfi_endproc
 2373              	.LFE258:
 2375              		.section	.text.HAL_RTCEx_DeactivateCoarseCalib,"ax",%progbits
 2376              		.align	1
 2377              		.global	HAL_RTCEx_DeactivateCoarseCalib
 2378              		.syntax unified
 2379              		.thumb
 2380              		.thumb_func
ARM GAS  /tmp/ccTwdjOX.s 			page 68


 2381              		.fpu fpv4-sp-d16
 2383              	HAL_RTCEx_DeactivateCoarseCalib:
 2384              	.LVL165:
 2385              	.LFB259:
1343:Drivers/STM32F4xx_HAL_Driver/Src/stm32f4xx_hal_rtc_ex.c **** 
1344:Drivers/STM32F4xx_HAL_Driver/Src/stm32f4xx_hal_rtc_ex.c **** /**
1345:Drivers/STM32F4xx_HAL_Driver/Src/stm32f4xx_hal_rtc_ex.c ****   * @brief  Deactivates the Coarse calibration parameters.
1346:Drivers/STM32F4xx_HAL_Driver/Src/stm32f4xx_hal_rtc_ex.c ****   * @param  hrtc pointer to a RTC_HandleTypeDef structure that contains
1347:Drivers/STM32F4xx_HAL_Driver/Src/stm32f4xx_hal_rtc_ex.c ****   *                the configuration information for RTC.
1348:Drivers/STM32F4xx_HAL_Driver/Src/stm32f4xx_hal_rtc_ex.c ****   * @retval HAL status
1349:Drivers/STM32F4xx_HAL_Driver/Src/stm32f4xx_hal_rtc_ex.c ****   */
1350:Drivers/STM32F4xx_HAL_Driver/Src/stm32f4xx_hal_rtc_ex.c **** HAL_StatusTypeDef HAL_RTCEx_DeactivateCoarseCalib(RTC_HandleTypeDef *hrtc)
