ARM GAS  /tmp/ccwvGOOK.s 			page 1


   1              		.cpu cortex-m4
   2              		.eabi_attribute 27, 1
   3              		.eabi_attribute 28, 1
   4              		.eabi_attribute 20, 1
   5              		.eabi_attribute 21, 1
   6              		.eabi_attribute 23, 3
   7              		.eabi_attribute 24, 1
   8              		.eabi_attribute 25, 1
   9              		.eabi_attribute 26, 1
  10              		.eabi_attribute 30, 1
  11              		.eabi_attribute 34, 1
  12              		.eabi_attribute 18, 4
  13              		.file	"usbd_conf.c"
  14              		.text
  15              	.Ltext0:
  16              		.cfi_sections	.debug_frame
  17              		.section	.text.HAL_PCD_MspInit,"ax",%progbits
  18              		.align	1
  19              		.global	HAL_PCD_MspInit
  20              		.arch armv7e-m
  21              		.syntax unified
  22              		.thumb
  23              		.thumb_func
  24              		.fpu fpv4-sp-d16
  26              	HAL_PCD_MspInit:
  27              	.LVL0:
  28              	.LFB239:
  29              		.file 1 "USB_DEVICE/Target/usbd_conf.c"
   1:USB_DEVICE/Target/usbd_conf.c **** /* USER CODE BEGIN Header */
   2:USB_DEVICE/Target/usbd_conf.c **** /**
   3:USB_DEVICE/Target/usbd_conf.c ****   ******************************************************************************
   4:USB_DEVICE/Target/usbd_conf.c ****   * @file           : Target/usbd_conf.c
   5:USB_DEVICE/Target/usbd_conf.c ****   * @version        : v1.0_Cube
   6:USB_DEVICE/Target/usbd_conf.c ****   * @brief          : This file implements the board support package for the USB device library
   7:USB_DEVICE/Target/usbd_conf.c ****   ******************************************************************************
   8:USB_DEVICE/Target/usbd_conf.c ****   * @attention
   9:USB_DEVICE/Target/usbd_conf.c ****   *
  10:USB_DEVICE/Target/usbd_conf.c ****   * Copyright (c) 2023 STMicroelectronics.
  11:USB_DEVICE/Target/usbd_conf.c ****   * All rights reserved.
  12:USB_DEVICE/Target/usbd_conf.c ****   *
  13:USB_DEVICE/Target/usbd_conf.c ****   * This software is licensed under terms that can be found in the LICENSE file
  14:USB_DEVICE/Target/usbd_conf.c ****   * in the root directory of this software component.
  15:USB_DEVICE/Target/usbd_conf.c ****   * If no LICENSE file comes with this software, it is provided AS-IS.
  16:USB_DEVICE/Target/usbd_conf.c ****   *
  17:USB_DEVICE/Target/usbd_conf.c ****   ******************************************************************************
  18:USB_DEVICE/Target/usbd_conf.c ****   */
  19:USB_DEVICE/Target/usbd_conf.c **** /* USER CODE END Header */
  20:USB_DEVICE/Target/usbd_conf.c **** 
  21:USB_DEVICE/Target/usbd_conf.c **** /* Includes ------------------------------------------------------------------*/
  22:USB_DEVICE/Target/usbd_conf.c **** #include "stm32f4xx.h"
  23:USB_DEVICE/Target/usbd_conf.c **** #include "stm32f4xx_hal.h"
  24:USB_DEVICE/Target/usbd_conf.c **** #include "usbd_def.h"
  25:USB_DEVICE/Target/usbd_conf.c **** #include "usbd_core.h"
  26:USB_DEVICE/Target/usbd_conf.c **** 
  27:USB_DEVICE/Target/usbd_conf.c **** #include "usbd_cdc.h"
  28:USB_DEVICE/Target/usbd_conf.c **** 
  29:USB_DEVICE/Target/usbd_conf.c **** /* USER CODE BEGIN Includes */
ARM GAS  /tmp/ccwvGOOK.s 			page 2


  30:USB_DEVICE/Target/usbd_conf.c **** 
  31:USB_DEVICE/Target/usbd_conf.c **** /* USER CODE END Includes */
  32:USB_DEVICE/Target/usbd_conf.c **** 
  33:USB_DEVICE/Target/usbd_conf.c **** /* Private typedef -----------------------------------------------------------*/
  34:USB_DEVICE/Target/usbd_conf.c **** /* Private define ------------------------------------------------------------*/
  35:USB_DEVICE/Target/usbd_conf.c **** /* Private macro -------------------------------------------------------------*/
  36:USB_DEVICE/Target/usbd_conf.c **** 
  37:USB_DEVICE/Target/usbd_conf.c **** /* USER CODE BEGIN PV */
  38:USB_DEVICE/Target/usbd_conf.c **** /* Private variables ---------------------------------------------------------*/
  39:USB_DEVICE/Target/usbd_conf.c **** 
  40:USB_DEVICE/Target/usbd_conf.c **** /* USER CODE END PV */
  41:USB_DEVICE/Target/usbd_conf.c **** 
  42:USB_DEVICE/Target/usbd_conf.c **** PCD_HandleTypeDef hpcd_USB_OTG_FS;
  43:USB_DEVICE/Target/usbd_conf.c **** void Error_Handler(void);
  44:USB_DEVICE/Target/usbd_conf.c **** 
  45:USB_DEVICE/Target/usbd_conf.c **** /* External functions --------------------------------------------------------*/
  46:USB_DEVICE/Target/usbd_conf.c **** void SystemClock_Config(void);
  47:USB_DEVICE/Target/usbd_conf.c **** 
  48:USB_DEVICE/Target/usbd_conf.c **** /* USER CODE BEGIN 0 */
  49:USB_DEVICE/Target/usbd_conf.c **** 
  50:USB_DEVICE/Target/usbd_conf.c **** /* USER CODE END 0 */
  51:USB_DEVICE/Target/usbd_conf.c **** 
  52:USB_DEVICE/Target/usbd_conf.c **** /* USER CODE BEGIN PFP */
  53:USB_DEVICE/Target/usbd_conf.c **** /* Private function prototypes -----------------------------------------------*/
  54:USB_DEVICE/Target/usbd_conf.c **** USBD_StatusTypeDef USBD_Get_USB_Status(HAL_StatusTypeDef hal_status);
  55:USB_DEVICE/Target/usbd_conf.c **** 
  56:USB_DEVICE/Target/usbd_conf.c **** /* USER CODE END PFP */
  57:USB_DEVICE/Target/usbd_conf.c **** 
  58:USB_DEVICE/Target/usbd_conf.c **** /* Private functions ---------------------------------------------------------*/
  59:USB_DEVICE/Target/usbd_conf.c **** 
  60:USB_DEVICE/Target/usbd_conf.c **** /* USER CODE BEGIN 1 */
  61:USB_DEVICE/Target/usbd_conf.c **** 
  62:USB_DEVICE/Target/usbd_conf.c **** /* USER CODE END 1 */
  63:USB_DEVICE/Target/usbd_conf.c **** 
  64:USB_DEVICE/Target/usbd_conf.c **** /*******************************************************************************
  65:USB_DEVICE/Target/usbd_conf.c ****                        LL Driver Callbacks (PCD -> USB Device Library)
  66:USB_DEVICE/Target/usbd_conf.c **** *******************************************************************************/
  67:USB_DEVICE/Target/usbd_conf.c **** /* MSP Init */
  68:USB_DEVICE/Target/usbd_conf.c **** 
  69:USB_DEVICE/Target/usbd_conf.c **** void HAL_PCD_MspInit(PCD_HandleTypeDef* pcdHandle)
  70:USB_DEVICE/Target/usbd_conf.c **** {
  30              		.loc 1 70 1 view -0
  31              		.cfi_startproc
  32              		@ args = 0, pretend = 0, frame = 32
  33              		@ frame_needed = 0, uses_anonymous_args = 0
  34              		.loc 1 70 1 is_stmt 0 view .LVU1
  35 0000 30B5     		push	{r4, r5, lr}
  36              	.LCFI0:
  37              		.cfi_def_cfa_offset 12
  38              		.cfi_offset 4, -12
  39              		.cfi_offset 5, -8
  40              		.cfi_offset 14, -4
  41 0002 89B0     		sub	sp, sp, #36
  42              	.LCFI1:
  43              		.cfi_def_cfa_offset 48
  71:USB_DEVICE/Target/usbd_conf.c ****   GPIO_InitTypeDef GPIO_InitStruct = {0};
  44              		.loc 1 71 3 is_stmt 1 view .LVU2
ARM GAS  /tmp/ccwvGOOK.s 			page 3


  45              		.loc 1 71 20 is_stmt 0 view .LVU3
  46 0004 0023     		movs	r3, #0
  47 0006 0393     		str	r3, [sp, #12]
  48 0008 0493     		str	r3, [sp, #16]
  49 000a 0593     		str	r3, [sp, #20]
  50 000c 0693     		str	r3, [sp, #24]
  51 000e 0793     		str	r3, [sp, #28]
  72:USB_DEVICE/Target/usbd_conf.c ****   if(pcdHandle->Instance==USB_OTG_FS)
  52              		.loc 1 72 3 is_stmt 1 view .LVU4
  53              		.loc 1 72 15 is_stmt 0 view .LVU5
  54 0010 0368     		ldr	r3, [r0]
  55              		.loc 1 72 5 view .LVU6
  56 0012 B3F1A04F 		cmp	r3, #1342177280
  57 0016 01D0     		beq	.L4
  58              	.LVL1:
  59              	.L1:
  73:USB_DEVICE/Target/usbd_conf.c ****   {
  74:USB_DEVICE/Target/usbd_conf.c ****   /* USER CODE BEGIN USB_OTG_FS_MspInit 0 */
  75:USB_DEVICE/Target/usbd_conf.c **** 
  76:USB_DEVICE/Target/usbd_conf.c ****   /* USER CODE END USB_OTG_FS_MspInit 0 */
  77:USB_DEVICE/Target/usbd_conf.c **** 
  78:USB_DEVICE/Target/usbd_conf.c ****     __HAL_RCC_GPIOA_CLK_ENABLE();
  79:USB_DEVICE/Target/usbd_conf.c ****     /**USB_OTG_FS GPIO Configuration
  80:USB_DEVICE/Target/usbd_conf.c ****     PA11     ------> USB_OTG_FS_DM
  81:USB_DEVICE/Target/usbd_conf.c ****     PA12     ------> USB_OTG_FS_DP
  82:USB_DEVICE/Target/usbd_conf.c ****     */
  83:USB_DEVICE/Target/usbd_conf.c ****     GPIO_InitStruct.Pin = GPIO_PIN_11|GPIO_PIN_12;
  84:USB_DEVICE/Target/usbd_conf.c ****     GPIO_InitStruct.Mode = GPIO_MODE_AF_PP;
  85:USB_DEVICE/Target/usbd_conf.c ****     GPIO_InitStruct.Pull = GPIO_NOPULL;
  86:USB_DEVICE/Target/usbd_conf.c ****     GPIO_InitStruct.Speed = GPIO_SPEED_FREQ_VERY_HIGH;
  87:USB_DEVICE/Target/usbd_conf.c ****     GPIO_InitStruct.Alternate = GPIO_AF10_OTG_FS;
  88:USB_DEVICE/Target/usbd_conf.c ****     HAL_GPIO_Init(GPIOA, &GPIO_InitStruct);
  89:USB_DEVICE/Target/usbd_conf.c **** 
  90:USB_DEVICE/Target/usbd_conf.c ****     /* Peripheral clock enable */
  91:USB_DEVICE/Target/usbd_conf.c ****     __HAL_RCC_USB_OTG_FS_CLK_ENABLE();
  92:USB_DEVICE/Target/usbd_conf.c **** 
  93:USB_DEVICE/Target/usbd_conf.c ****     /* Peripheral interrupt init */
  94:USB_DEVICE/Target/usbd_conf.c ****     HAL_NVIC_SetPriority(OTG_FS_IRQn, 0, 0);
  95:USB_DEVICE/Target/usbd_conf.c ****     HAL_NVIC_EnableIRQ(OTG_FS_IRQn);
  96:USB_DEVICE/Target/usbd_conf.c ****   /* USER CODE BEGIN USB_OTG_FS_MspInit 1 */
  97:USB_DEVICE/Target/usbd_conf.c **** 
  98:USB_DEVICE/Target/usbd_conf.c ****   /* USER CODE END USB_OTG_FS_MspInit 1 */
  99:USB_DEVICE/Target/usbd_conf.c ****   }
 100:USB_DEVICE/Target/usbd_conf.c **** }
  60              		.loc 1 100 1 view .LVU7
  61 0018 09B0     		add	sp, sp, #36
  62              	.LCFI2:
  63              		.cfi_remember_state
  64              		.cfi_def_cfa_offset 12
  65              		@ sp needed
  66 001a 30BD     		pop	{r4, r5, pc}
  67              	.LVL2:
  68              	.L4:
  69              	.LCFI3:
  70              		.cfi_restore_state
  78:USB_DEVICE/Target/usbd_conf.c ****     /**USB_OTG_FS GPIO Configuration
  71              		.loc 1 78 5 is_stmt 1 view .LVU8
ARM GAS  /tmp/ccwvGOOK.s 			page 4


  72              	.LBB2:
  78:USB_DEVICE/Target/usbd_conf.c ****     /**USB_OTG_FS GPIO Configuration
  73              		.loc 1 78 5 view .LVU9
  74 001c 0025     		movs	r5, #0
  75 001e 0195     		str	r5, [sp, #4]
  78:USB_DEVICE/Target/usbd_conf.c ****     /**USB_OTG_FS GPIO Configuration
  76              		.loc 1 78 5 view .LVU10
  77 0020 164C     		ldr	r4, .L5
  78 0022 236B     		ldr	r3, [r4, #48]
  79 0024 43F00103 		orr	r3, r3, #1
  80 0028 2363     		str	r3, [r4, #48]
  78:USB_DEVICE/Target/usbd_conf.c ****     /**USB_OTG_FS GPIO Configuration
  81              		.loc 1 78 5 view .LVU11
  82 002a 236B     		ldr	r3, [r4, #48]
  83 002c 03F00103 		and	r3, r3, #1
  84 0030 0193     		str	r3, [sp, #4]
  78:USB_DEVICE/Target/usbd_conf.c ****     /**USB_OTG_FS GPIO Configuration
  85              		.loc 1 78 5 view .LVU12
  86 0032 019B     		ldr	r3, [sp, #4]
  87              	.LBE2:
  83:USB_DEVICE/Target/usbd_conf.c ****     GPIO_InitStruct.Mode = GPIO_MODE_AF_PP;
  88              		.loc 1 83 5 view .LVU13
  83:USB_DEVICE/Target/usbd_conf.c ****     GPIO_InitStruct.Mode = GPIO_MODE_AF_PP;
  89              		.loc 1 83 25 is_stmt 0 view .LVU14
  90 0034 4FF4C053 		mov	r3, #6144
  91 0038 0393     		str	r3, [sp, #12]
  84:USB_DEVICE/Target/usbd_conf.c ****     GPIO_InitStruct.Pull = GPIO_NOPULL;
  92              		.loc 1 84 5 is_stmt 1 view .LVU15
  84:USB_DEVICE/Target/usbd_conf.c ****     GPIO_InitStruct.Pull = GPIO_NOPULL;
  93              		.loc 1 84 26 is_stmt 0 view .LVU16
  94 003a 0223     		movs	r3, #2
  95 003c 0493     		str	r3, [sp, #16]
  85:USB_DEVICE/Target/usbd_conf.c ****     GPIO_InitStruct.Speed = GPIO_SPEED_FREQ_VERY_HIGH;
  96              		.loc 1 85 5 is_stmt 1 view .LVU17
  86:USB_DEVICE/Target/usbd_conf.c ****     GPIO_InitStruct.Alternate = GPIO_AF10_OTG_FS;
  97              		.loc 1 86 5 view .LVU18
  86:USB_DEVICE/Target/usbd_conf.c ****     GPIO_InitStruct.Alternate = GPIO_AF10_OTG_FS;
  98              		.loc 1 86 27 is_stmt 0 view .LVU19
  99 003e 0323     		movs	r3, #3
 100 0040 0693     		str	r3, [sp, #24]
  87:USB_DEVICE/Target/usbd_conf.c ****     HAL_GPIO_Init(GPIOA, &GPIO_InitStruct);
 101              		.loc 1 87 5 is_stmt 1 view .LVU20
  87:USB_DEVICE/Target/usbd_conf.c ****     HAL_GPIO_Init(GPIOA, &GPIO_InitStruct);
 102              		.loc 1 87 31 is_stmt 0 view .LVU21
 103 0042 0A23     		movs	r3, #10
 104 0044 0793     		str	r3, [sp, #28]
  88:USB_DEVICE/Target/usbd_conf.c **** 
 105              		.loc 1 88 5 is_stmt 1 view .LVU22
 106 0046 03A9     		add	r1, sp, #12
 107 0048 0D48     		ldr	r0, .L5+4
 108              	.LVL3:
  88:USB_DEVICE/Target/usbd_conf.c **** 
 109              		.loc 1 88 5 is_stmt 0 view .LVU23
 110 004a FFF7FEFF 		bl	HAL_GPIO_Init
 111              	.LVL4:
  91:USB_DEVICE/Target/usbd_conf.c **** 
 112              		.loc 1 91 5 is_stmt 1 view .LVU24
ARM GAS  /tmp/ccwvGOOK.s 			page 5


  91:USB_DEVICE/Target/usbd_conf.c **** 
 113              		.loc 1 91 5 view .LVU25
 114 004e 636B     		ldr	r3, [r4, #52]
 115 0050 43F08003 		orr	r3, r3, #128
 116 0054 6363     		str	r3, [r4, #52]
  91:USB_DEVICE/Target/usbd_conf.c **** 
 117              		.loc 1 91 5 view .LVU26
 118              	.LBB3:
  91:USB_DEVICE/Target/usbd_conf.c **** 
 119              		.loc 1 91 5 view .LVU27
 120 0056 0295     		str	r5, [sp, #8]
  91:USB_DEVICE/Target/usbd_conf.c **** 
 121              		.loc 1 91 5 view .LVU28
 122 0058 636C     		ldr	r3, [r4, #68]
 123 005a 43F48043 		orr	r3, r3, #16384
 124 005e 6364     		str	r3, [r4, #68]
  91:USB_DEVICE/Target/usbd_conf.c **** 
 125              		.loc 1 91 5 view .LVU29
 126 0060 636C     		ldr	r3, [r4, #68]
 127 0062 03F48043 		and	r3, r3, #16384
 128 0066 0293     		str	r3, [sp, #8]
  91:USB_DEVICE/Target/usbd_conf.c **** 
 129              		.loc 1 91 5 view .LVU30
 130 0068 029B     		ldr	r3, [sp, #8]
 131              	.LBE3:
  94:USB_DEVICE/Target/usbd_conf.c ****     HAL_NVIC_EnableIRQ(OTG_FS_IRQn);
 132              		.loc 1 94 5 view .LVU31
 133 006a 2A46     		mov	r2, r5
 134 006c 2946     		mov	r1, r5
 135 006e 4320     		movs	r0, #67
 136 0070 FFF7FEFF 		bl	HAL_NVIC_SetPriority
 137              	.LVL5:
  95:USB_DEVICE/Target/usbd_conf.c ****   /* USER CODE BEGIN USB_OTG_FS_MspInit 1 */
 138              		.loc 1 95 5 view .LVU32
 139 0074 4320     		movs	r0, #67
 140 0076 FFF7FEFF 		bl	HAL_NVIC_EnableIRQ
 141              	.LVL6:
 142              		.loc 1 100 1 is_stmt 0 view .LVU33
 143 007a CDE7     		b	.L1
 144              	.L6:
 145              		.align	2
 146              	.L5:
 147 007c 00380240 		.word	1073887232
 148 0080 00000240 		.word	1073872896
 149              		.cfi_endproc
 150              	.LFE239:
 152              		.section	.text.HAL_PCD_MspDeInit,"ax",%progbits
 153              		.align	1
 154              		.global	HAL_PCD_MspDeInit
 155              		.syntax unified
 156              		.thumb
 157              		.thumb_func
 158              		.fpu fpv4-sp-d16
 160              	HAL_PCD_MspDeInit:
 161              	.LVL7:
 162              	.LFB240:
 101:USB_DEVICE/Target/usbd_conf.c **** 
ARM GAS  /tmp/ccwvGOOK.s 			page 6


 102:USB_DEVICE/Target/usbd_conf.c **** void HAL_PCD_MspDeInit(PCD_HandleTypeDef* pcdHandle)
 103:USB_DEVICE/Target/usbd_conf.c **** {
 163              		.loc 1 103 1 is_stmt 1 view -0
 164              		.cfi_startproc
 165              		@ args = 0, pretend = 0, frame = 0
 166              		@ frame_needed = 0, uses_anonymous_args = 0
 167              		.loc 1 103 1 is_stmt 0 view .LVU35
 168 0000 08B5     		push	{r3, lr}
 169              	.LCFI4:
 170              		.cfi_def_cfa_offset 8
 171              		.cfi_offset 3, -8
 172              		.cfi_offset 14, -4
 104:USB_DEVICE/Target/usbd_conf.c ****   if(pcdHandle->Instance==USB_OTG_FS)
 173              		.loc 1 104 3 is_stmt 1 view .LVU36
 174              		.loc 1 104 15 is_stmt 0 view .LVU37
 175 0002 0368     		ldr	r3, [r0]
 176              		.loc 1 104 5 view .LVU38
 177 0004 B3F1A04F 		cmp	r3, #1342177280
 178 0008 00D0     		beq	.L10
 179              	.LVL8:
 180              	.L7:
 105:USB_DEVICE/Target/usbd_conf.c ****   {
 106:USB_DEVICE/Target/usbd_conf.c ****   /* USER CODE BEGIN USB_OTG_FS_MspDeInit 0 */
 107:USB_DEVICE/Target/usbd_conf.c **** 
 108:USB_DEVICE/Target/usbd_conf.c ****   /* USER CODE END USB_OTG_FS_MspDeInit 0 */
 109:USB_DEVICE/Target/usbd_conf.c ****     /* Peripheral clock disable */
 110:USB_DEVICE/Target/usbd_conf.c ****     __HAL_RCC_USB_OTG_FS_CLK_DISABLE();
 111:USB_DEVICE/Target/usbd_conf.c **** 
 112:USB_DEVICE/Target/usbd_conf.c ****     /**USB_OTG_FS GPIO Configuration
 113:USB_DEVICE/Target/usbd_conf.c ****     PA11     ------> USB_OTG_FS_DM
 114:USB_DEVICE/Target/usbd_conf.c ****     PA12     ------> USB_OTG_FS_DP
 115:USB_DEVICE/Target/usbd_conf.c ****     */
 116:USB_DEVICE/Target/usbd_conf.c ****     HAL_GPIO_DeInit(GPIOA, GPIO_PIN_11|GPIO_PIN_12);
 117:USB_DEVICE/Target/usbd_conf.c **** 
 118:USB_DEVICE/Target/usbd_conf.c ****     /* Peripheral interrupt Deinit*/
 119:USB_DEVICE/Target/usbd_conf.c ****     HAL_NVIC_DisableIRQ(OTG_FS_IRQn);
 120:USB_DEVICE/Target/usbd_conf.c **** 
 121:USB_DEVICE/Target/usbd_conf.c ****   /* USER CODE BEGIN USB_OTG_FS_MspDeInit 1 */
 122:USB_DEVICE/Target/usbd_conf.c **** 
 123:USB_DEVICE/Target/usbd_conf.c ****   /* USER CODE END USB_OTG_FS_MspDeInit 1 */
 124:USB_DEVICE/Target/usbd_conf.c ****   }
 125:USB_DEVICE/Target/usbd_conf.c **** }
 181              		.loc 1 125 1 view .LVU39
 182 000a 08BD     		pop	{r3, pc}
 183              	.LVL9:
 184              	.L10:
 110:USB_DEVICE/Target/usbd_conf.c **** 
 185              		.loc 1 110 5 is_stmt 1 view .LVU40
 186 000c 064A     		ldr	r2, .L11
 187 000e 536B     		ldr	r3, [r2, #52]
 188 0010 23F08003 		bic	r3, r3, #128
 189 0014 5363     		str	r3, [r2, #52]
 116:USB_DEVICE/Target/usbd_conf.c **** 
 190              		.loc 1 116 5 view .LVU41
 191 0016 4FF4C051 		mov	r1, #6144
 192 001a 0448     		ldr	r0, .L11+4
 193              	.LVL10:
ARM GAS  /tmp/ccwvGOOK.s 			page 7


 116:USB_DEVICE/Target/usbd_conf.c **** 
 194              		.loc 1 116 5 is_stmt 0 view .LVU42
 195 001c FFF7FEFF 		bl	HAL_GPIO_DeInit
 196              	.LVL11:
 119:USB_DEVICE/Target/usbd_conf.c **** 
 197              		.loc 1 119 5 is_stmt 1 view .LVU43
 198 0020 4320     		movs	r0, #67
 199 0022 FFF7FEFF 		bl	HAL_NVIC_DisableIRQ
 200              	.LVL12:
 201              		.loc 1 125 1 is_stmt 0 view .LVU44
 202 0026 F0E7     		b	.L7
 203              	.L12:
 204              		.align	2
 205              	.L11:
 206 0028 00380240 		.word	1073887232
 207 002c 00000240 		.word	1073872896
 208              		.cfi_endproc
 209              	.LFE240:
 211              		.section	.text.HAL_PCD_SetupStageCallback,"ax",%progbits
 212              		.align	1
 213              		.global	HAL_PCD_SetupStageCallback
 214              		.syntax unified
 215              		.thumb
 216              		.thumb_func
 217              		.fpu fpv4-sp-d16
 219              	HAL_PCD_SetupStageCallback:
 220              	.LVL13:
 221              	.LFB241:
 126:USB_DEVICE/Target/usbd_conf.c **** 
 127:USB_DEVICE/Target/usbd_conf.c **** /**
 128:USB_DEVICE/Target/usbd_conf.c ****   * @brief  Setup stage callback
 129:USB_DEVICE/Target/usbd_conf.c ****   * @param  hpcd: PCD handle
 130:USB_DEVICE/Target/usbd_conf.c ****   * @retval None
 131:USB_DEVICE/Target/usbd_conf.c ****   */
 132:USB_DEVICE/Target/usbd_conf.c **** #if (USE_HAL_PCD_REGISTER_CALLBACKS == 1U)
 133:USB_DEVICE/Target/usbd_conf.c **** static void PCD_SetupStageCallback(PCD_HandleTypeDef *hpcd)
 134:USB_DEVICE/Target/usbd_conf.c **** #else
 135:USB_DEVICE/Target/usbd_conf.c **** void HAL_PCD_SetupStageCallback(PCD_HandleTypeDef *hpcd)
 136:USB_DEVICE/Target/usbd_conf.c **** #endif /* USE_HAL_PCD_REGISTER_CALLBACKS */
 137:USB_DEVICE/Target/usbd_conf.c **** {
 222              		.loc 1 137 1 is_stmt 1 view -0
 223              		.cfi_startproc
 224              		@ args = 0, pretend = 0, frame = 0
 225              		@ frame_needed = 0, uses_anonymous_args = 0
 226              		.loc 1 137 1 is_stmt 0 view .LVU46
 227 0000 08B5     		push	{r3, lr}
 228              	.LCFI5:
 229              		.cfi_def_cfa_offset 8
 230              		.cfi_offset 3, -8
 231              		.cfi_offset 14, -4
 138:USB_DEVICE/Target/usbd_conf.c ****   USBD_LL_SetupStage((USBD_HandleTypeDef*)hpcd->pData, (uint8_t *)hpcd->Setup);
 232              		.loc 1 138 3 is_stmt 1 view .LVU47
 233 0002 00F2C441 		addw	r1, r0, #1220
 234 0006 D0F80805 		ldr	r0, [r0, #1288]
 235              	.LVL14:
 236              		.loc 1 138 3 is_stmt 0 view .LVU48
 237 000a FFF7FEFF 		bl	USBD_LL_SetupStage
ARM GAS  /tmp/ccwvGOOK.s 			page 8


 238              	.LVL15:
 139:USB_DEVICE/Target/usbd_conf.c **** }
 239              		.loc 1 139 1 view .LVU49
 240 000e 08BD     		pop	{r3, pc}
 241              		.cfi_endproc
 242              	.LFE241:
 244              		.section	.text.HAL_PCD_DataOutStageCallback,"ax",%progbits
 245              		.align	1
 246              		.global	HAL_PCD_DataOutStageCallback
 247              		.syntax unified
 248              		.thumb
 249              		.thumb_func
 250              		.fpu fpv4-sp-d16
 252              	HAL_PCD_DataOutStageCallback:
 253              	.LVL16:
 254              	.LFB242:
 140:USB_DEVICE/Target/usbd_conf.c **** 
 141:USB_DEVICE/Target/usbd_conf.c **** /**
 142:USB_DEVICE/Target/usbd_conf.c ****   * @brief  Data Out stage callback.
 143:USB_DEVICE/Target/usbd_conf.c ****   * @param  hpcd: PCD handle
 144:USB_DEVICE/Target/usbd_conf.c ****   * @param  epnum: Endpoint number
 145:USB_DEVICE/Target/usbd_conf.c ****   * @retval None
 146:USB_DEVICE/Target/usbd_conf.c ****   */
 147:USB_DEVICE/Target/usbd_conf.c **** #if (USE_HAL_PCD_REGISTER_CALLBACKS == 1U)
 148:USB_DEVICE/Target/usbd_conf.c **** static void PCD_DataOutStageCallback(PCD_HandleTypeDef *hpcd, uint8_t epnum)
 149:USB_DEVICE/Target/usbd_conf.c **** #else
 150:USB_DEVICE/Target/usbd_conf.c **** void HAL_PCD_DataOutStageCallback(PCD_HandleTypeDef *hpcd, uint8_t epnum)
 151:USB_DEVICE/Target/usbd_conf.c **** #endif /* USE_HAL_PCD_REGISTER_CALLBACKS */
 152:USB_DEVICE/Target/usbd_conf.c **** {
 255              		.loc 1 152 1 is_stmt 1 view -0
 256              		.cfi_startproc
 257              		@ args = 0, pretend = 0, frame = 0
 258              		@ frame_needed = 0, uses_anonymous_args = 0
 259              		.loc 1 152 1 is_stmt 0 view .LVU51
 260 0000 08B5     		push	{r3, lr}
 261              	.LCFI6:
 262              		.cfi_def_cfa_offset 8
 263              		.cfi_offset 3, -8
 264              		.cfi_offset 14, -4
 153:USB_DEVICE/Target/usbd_conf.c ****   USBD_LL_DataOutStage((USBD_HandleTypeDef*)hpcd->pData, epnum, hpcd->OUT_ep[epnum].xfer_buff);
 265              		.loc 1 153 3 is_stmt 1 view .LVU52
 266 0002 01EBC102 		add	r2, r1, r1, lsl #3
 267 0006 9300     		lsls	r3, r2, #2
 268 0008 0344     		add	r3, r3, r0
 269 000a D3F88C22 		ldr	r2, [r3, #652]
 270 000e D0F80805 		ldr	r0, [r0, #1288]
 271              	.LVL17:
 272              		.loc 1 153 3 is_stmt 0 view .LVU53
 273 0012 FFF7FEFF 		bl	USBD_LL_DataOutStage
 274              	.LVL18:
 154:USB_DEVICE/Target/usbd_conf.c **** }
 275              		.loc 1 154 1 view .LVU54
 276 0016 08BD     		pop	{r3, pc}
 277              		.cfi_endproc
 278              	.LFE242:
 280              		.section	.text.HAL_PCD_DataInStageCallback,"ax",%progbits
 281              		.align	1
ARM GAS  /tmp/ccwvGOOK.s 			page 9


 282              		.global	HAL_PCD_DataInStageCallback
 283              		.syntax unified
 284              		.thumb
 285              		.thumb_func
 286              		.fpu fpv4-sp-d16
 288              	HAL_PCD_DataInStageCallback:
 289              	.LVL19:
 290              	.LFB243:
 155:USB_DEVICE/Target/usbd_conf.c **** 
 156:USB_DEVICE/Target/usbd_conf.c **** /**
 157:USB_DEVICE/Target/usbd_conf.c ****   * @brief  Data In stage callback.
 158:USB_DEVICE/Target/usbd_conf.c ****   * @param  hpcd: PCD handle
 159:USB_DEVICE/Target/usbd_conf.c ****   * @param  epnum: Endpoint number
 160:USB_DEVICE/Target/usbd_conf.c ****   * @retval None
 161:USB_DEVICE/Target/usbd_conf.c ****   */
 162:USB_DEVICE/Target/usbd_conf.c **** #if (USE_HAL_PCD_REGISTER_CALLBACKS == 1U)
 163:USB_DEVICE/Target/usbd_conf.c **** static void PCD_DataInStageCallback(PCD_HandleTypeDef *hpcd, uint8_t epnum)
 164:USB_DEVICE/Target/usbd_conf.c **** #else
 165:USB_DEVICE/Target/usbd_conf.c **** void HAL_PCD_DataInStageCallback(PCD_HandleTypeDef *hpcd, uint8_t epnum)
 166:USB_DEVICE/Target/usbd_conf.c **** #endif /* USE_HAL_PCD_REGISTER_CALLBACKS */
 167:USB_DEVICE/Target/usbd_conf.c **** {
 291              		.loc 1 167 1 is_stmt 1 view -0
 292              		.cfi_startproc
 293              		@ args = 0, pretend = 0, frame = 0
 294              		@ frame_needed = 0, uses_anonymous_args = 0
 295              		.loc 1 167 1 is_stmt 0 view .LVU56
 296 0000 08B5     		push	{r3, lr}
 297              	.LCFI7:
 298              		.cfi_def_cfa_offset 8
 299              		.cfi_offset 3, -8
 300              		.cfi_offset 14, -4
 168:USB_DEVICE/Target/usbd_conf.c ****   USBD_LL_DataInStage((USBD_HandleTypeDef*)hpcd->pData, epnum, hpcd->IN_ep[epnum].xfer_buff);
 301              		.loc 1 168 3 is_stmt 1 view .LVU57
 302 0002 01EBC102 		add	r2, r1, r1, lsl #3
 303 0006 9300     		lsls	r3, r2, #2
 304 0008 0344     		add	r3, r3, r0
 305 000a DA6C     		ldr	r2, [r3, #76]
 306 000c D0F80805 		ldr	r0, [r0, #1288]
 307              	.LVL20:
 308              		.loc 1 168 3 is_stmt 0 view .LVU58
 309 0010 FFF7FEFF 		bl	USBD_LL_DataInStage
 310              	.LVL21:
 169:USB_DEVICE/Target/usbd_conf.c **** }
 311              		.loc 1 169 1 view .LVU59
 312 0014 08BD     		pop	{r3, pc}
 313              		.cfi_endproc
 314              	.LFE243:
 316              		.section	.text.HAL_PCD_SOFCallback,"ax",%progbits
 317              		.align	1
 318              		.global	HAL_PCD_SOFCallback
 319              		.syntax unified
 320              		.thumb
 321              		.thumb_func
 322              		.fpu fpv4-sp-d16
 324              	HAL_PCD_SOFCallback:
 325              	.LVL22:
 326              	.LFB244:
ARM GAS  /tmp/ccwvGOOK.s 			page 10


 170:USB_DEVICE/Target/usbd_conf.c **** 
 171:USB_DEVICE/Target/usbd_conf.c **** /**
 172:USB_DEVICE/Target/usbd_conf.c ****   * @brief  SOF callback.
 173:USB_DEVICE/Target/usbd_conf.c ****   * @param  hpcd: PCD handle
 174:USB_DEVICE/Target/usbd_conf.c ****   * @retval None
 175:USB_DEVICE/Target/usbd_conf.c ****   */
 176:USB_DEVICE/Target/usbd_conf.c **** #if (USE_HAL_PCD_REGISTER_CALLBACKS == 1U)
 177:USB_DEVICE/Target/usbd_conf.c **** static void PCD_SOFCallback(PCD_HandleTypeDef *hpcd)
 178:USB_DEVICE/Target/usbd_conf.c **** #else
 179:USB_DEVICE/Target/usbd_conf.c **** void HAL_PCD_SOFCallback(PCD_HandleTypeDef *hpcd)
 180:USB_DEVICE/Target/usbd_conf.c **** #endif /* USE_HAL_PCD_REGISTER_CALLBACKS */
 181:USB_DEVICE/Target/usbd_conf.c **** {
 327              		.loc 1 181 1 is_stmt 1 view -0
 328              		.cfi_startproc
 329              		@ args = 0, pretend = 0, frame = 0
 330              		@ frame_needed = 0, uses_anonymous_args = 0
 331              		.loc 1 181 1 is_stmt 0 view .LVU61
 332 0000 08B5     		push	{r3, lr}
 333              	.LCFI8:
 334              		.cfi_def_cfa_offset 8
 335              		.cfi_offset 3, -8
 336              		.cfi_offset 14, -4
 182:USB_DEVICE/Target/usbd_conf.c ****   USBD_LL_SOF((USBD_HandleTypeDef*)hpcd->pData);
 337              		.loc 1 182 3 is_stmt 1 view .LVU62
 338 0002 D0F80805 		ldr	r0, [r0, #1288]
 339              	.LVL23:
 340              		.loc 1 182 3 is_stmt 0 view .LVU63
 341 0006 FFF7FEFF 		bl	USBD_LL_SOF
 342              	.LVL24:
 183:USB_DEVICE/Target/usbd_conf.c **** }
 343              		.loc 1 183 1 view .LVU64
 344 000a 08BD     		pop	{r3, pc}
 345              		.cfi_endproc
 346              	.LFE244:
 348              		.section	.text.HAL_PCD_ResetCallback,"ax",%progbits
 349              		.align	1
 350              		.global	HAL_PCD_ResetCallback
 351              		.syntax unified
 352              		.thumb
 353              		.thumb_func
 354              		.fpu fpv4-sp-d16
 356              	HAL_PCD_ResetCallback:
 357              	.LVL25:
 358              	.LFB245:
 184:USB_DEVICE/Target/usbd_conf.c **** 
 185:USB_DEVICE/Target/usbd_conf.c **** /**
 186:USB_DEVICE/Target/usbd_conf.c ****   * @brief  Reset callback.
 187:USB_DEVICE/Target/usbd_conf.c ****   * @param  hpcd: PCD handle
 188:USB_DEVICE/Target/usbd_conf.c ****   * @retval None
 189:USB_DEVICE/Target/usbd_conf.c ****   */
 190:USB_DEVICE/Target/usbd_conf.c **** #if (USE_HAL_PCD_REGISTER_CALLBACKS == 1U)
 191:USB_DEVICE/Target/usbd_conf.c **** static void PCD_ResetCallback(PCD_HandleTypeDef *hpcd)
 192:USB_DEVICE/Target/usbd_conf.c **** #else
 193:USB_DEVICE/Target/usbd_conf.c **** void HAL_PCD_ResetCallback(PCD_HandleTypeDef *hpcd)
 194:USB_DEVICE/Target/usbd_conf.c **** #endif /* USE_HAL_PCD_REGISTER_CALLBACKS */
 195:USB_DEVICE/Target/usbd_conf.c **** {
 359              		.loc 1 195 1 is_stmt 1 view -0
ARM GAS  /tmp/ccwvGOOK.s 			page 11


 360              		.cfi_startproc
 361              		@ args = 0, pretend = 0, frame = 0
 362              		@ frame_needed = 0, uses_anonymous_args = 0
 363              		.loc 1 195 1 is_stmt 0 view .LVU66
 364 0000 10B5     		push	{r4, lr}
 365              	.LCFI9:
 366              		.cfi_def_cfa_offset 8
 367              		.cfi_offset 4, -8
 368              		.cfi_offset 14, -4
 369 0002 0446     		mov	r4, r0
 196:USB_DEVICE/Target/usbd_conf.c ****   USBD_SpeedTypeDef speed = USBD_SPEED_FULL;
 370              		.loc 1 196 3 is_stmt 1 view .LVU67
 371              	.LVL26:
 197:USB_DEVICE/Target/usbd_conf.c **** 
 198:USB_DEVICE/Target/usbd_conf.c ****   if ( hpcd->Init.speed == PCD_SPEED_HIGH)
 372              		.loc 1 198 3 view .LVU68
 373              		.loc 1 198 18 is_stmt 0 view .LVU69
 374 0004 C368     		ldr	r3, [r0, #12]
 375              		.loc 1 198 6 view .LVU70
 376 0006 3BB1     		cbz	r3, .L23
 199:USB_DEVICE/Target/usbd_conf.c ****   {
 200:USB_DEVICE/Target/usbd_conf.c ****     speed = USBD_SPEED_HIGH;
 201:USB_DEVICE/Target/usbd_conf.c ****   }
 202:USB_DEVICE/Target/usbd_conf.c ****   else if ( hpcd->Init.speed == PCD_SPEED_FULL)
 377              		.loc 1 202 8 is_stmt 1 view .LVU71
 378              		.loc 1 202 11 is_stmt 0 view .LVU72
 379 0008 022B     		cmp	r3, #2
 380 000a 01D1     		bne	.L26
 203:USB_DEVICE/Target/usbd_conf.c ****   {
 204:USB_DEVICE/Target/usbd_conf.c ****     speed = USBD_SPEED_FULL;
 381              		.loc 1 204 11 view .LVU73
 382 000c 0121     		movs	r1, #1
 383 000e 04E0     		b	.L22
 384              	.L26:
 205:USB_DEVICE/Target/usbd_conf.c ****   }
 206:USB_DEVICE/Target/usbd_conf.c ****   else
 207:USB_DEVICE/Target/usbd_conf.c ****   {
 208:USB_DEVICE/Target/usbd_conf.c ****     Error_Handler();
 385              		.loc 1 208 5 is_stmt 1 view .LVU74
 386 0010 FFF7FEFF 		bl	Error_Handler
 387              	.LVL27:
 196:USB_DEVICE/Target/usbd_conf.c **** 
 388              		.loc 1 196 21 is_stmt 0 view .LVU75
 389 0014 0121     		movs	r1, #1
 390 0016 00E0     		b	.L22
 391              	.LVL28:
 392              	.L23:
 200:USB_DEVICE/Target/usbd_conf.c ****   }
 393              		.loc 1 200 11 view .LVU76
 394 0018 0021     		movs	r1, #0
 395              	.LVL29:
 396              	.L22:
 209:USB_DEVICE/Target/usbd_conf.c ****   }
 210:USB_DEVICE/Target/usbd_conf.c ****     /* Set Speed. */
 211:USB_DEVICE/Target/usbd_conf.c ****   USBD_LL_SetSpeed((USBD_HandleTypeDef*)hpcd->pData, speed);
 397              		.loc 1 211 3 is_stmt 1 view .LVU77
 398 001a D4F80805 		ldr	r0, [r4, #1288]
ARM GAS  /tmp/ccwvGOOK.s 			page 12


 399 001e FFF7FEFF 		bl	USBD_LL_SetSpeed
 400              	.LVL30:
 212:USB_DEVICE/Target/usbd_conf.c **** 
 213:USB_DEVICE/Target/usbd_conf.c ****   /* Reset Device. */
 214:USB_DEVICE/Target/usbd_conf.c ****   USBD_LL_Reset((USBD_HandleTypeDef*)hpcd->pData);
 401              		.loc 1 214 3 view .LVU78
 402 0022 D4F80805 		ldr	r0, [r4, #1288]
 403 0026 FFF7FEFF 		bl	USBD_LL_Reset
 404              	.LVL31:
 215:USB_DEVICE/Target/usbd_conf.c **** }
 405              		.loc 1 215 1 is_stmt 0 view .LVU79
 406 002a 10BD     		pop	{r4, pc}
 407              		.loc 1 215 1 view .LVU80
 408              		.cfi_endproc
 409              	.LFE245:
 411              		.section	.text.HAL_PCD_SuspendCallback,"ax",%progbits
 412              		.align	1
 413              		.global	HAL_PCD_SuspendCallback
 414              		.syntax unified
 415              		.thumb
 416              		.thumb_func
 417              		.fpu fpv4-sp-d16
 419              	HAL_PCD_SuspendCallback:
 420              	.LVL32:
 421              	.LFB246:
 216:USB_DEVICE/Target/usbd_conf.c **** 
 217:USB_DEVICE/Target/usbd_conf.c **** /**
 218:USB_DEVICE/Target/usbd_conf.c ****   * @brief  Suspend callback.
 219:USB_DEVICE/Target/usbd_conf.c ****   * When Low power mode is enabled the debug cannot be used (IAR, Keil doesn't support it)
 220:USB_DEVICE/Target/usbd_conf.c ****   * @param  hpcd: PCD handle
 221:USB_DEVICE/Target/usbd_conf.c ****   * @retval None
 222:USB_DEVICE/Target/usbd_conf.c ****   */
 223:USB_DEVICE/Target/usbd_conf.c **** #if (USE_HAL_PCD_REGISTER_CALLBACKS == 1U)
 224:USB_DEVICE/Target/usbd_conf.c **** static void PCD_SuspendCallback(PCD_HandleTypeDef *hpcd)
 225:USB_DEVICE/Target/usbd_conf.c **** #else
 226:USB_DEVICE/Target/usbd_conf.c **** void HAL_PCD_SuspendCallback(PCD_HandleTypeDef *hpcd)
 227:USB_DEVICE/Target/usbd_conf.c **** #endif /* USE_HAL_PCD_REGISTER_CALLBACKS */
 228:USB_DEVICE/Target/usbd_conf.c **** {
 422              		.loc 1 228 1 is_stmt 1 view -0
 423              		.cfi_startproc
 424              		@ args = 0, pretend = 0, frame = 0
 425              		@ frame_needed = 0, uses_anonymous_args = 0
 426              		.loc 1 228 1 is_stmt 0 view .LVU82
 427 0000 10B5     		push	{r4, lr}
 428              	.LCFI10:
 429              		.cfi_def_cfa_offset 8
 430              		.cfi_offset 4, -8
 431              		.cfi_offset 14, -4
 432 0002 0446     		mov	r4, r0
 229:USB_DEVICE/Target/usbd_conf.c ****   /* Inform USB library that core enters in suspend Mode. */
 230:USB_DEVICE/Target/usbd_conf.c ****   USBD_LL_Suspend((USBD_HandleTypeDef*)hpcd->pData);
 433              		.loc 1 230 3 is_stmt 1 view .LVU83
 434 0004 D0F80805 		ldr	r0, [r0, #1288]
 435              	.LVL33:
 436              		.loc 1 230 3 is_stmt 0 view .LVU84
 437 0008 FFF7FEFF 		bl	USBD_LL_Suspend
 438              	.LVL34:
ARM GAS  /tmp/ccwvGOOK.s 			page 13


 231:USB_DEVICE/Target/usbd_conf.c ****   __HAL_PCD_GATE_PHYCLOCK(hpcd);
 439              		.loc 1 231 3 is_stmt 1 view .LVU85
 440 000c 2268     		ldr	r2, [r4]
 441 000e D2F8003E 		ldr	r3, [r2, #3584]
 442 0012 43F00103 		orr	r3, r3, #1
 443 0016 C2F8003E 		str	r3, [r2, #3584]
 232:USB_DEVICE/Target/usbd_conf.c ****   /* Enter in STOP mode. */
 233:USB_DEVICE/Target/usbd_conf.c ****   /* USER CODE BEGIN 2 */
 234:USB_DEVICE/Target/usbd_conf.c ****   if (hpcd->Init.low_power_enable)
 444              		.loc 1 234 3 view .LVU86
 445              		.loc 1 234 17 is_stmt 0 view .LVU87
 446 001a 236A     		ldr	r3, [r4, #32]
 447              		.loc 1 234 6 view .LVU88
 448 001c 23B1     		cbz	r3, .L27
 235:USB_DEVICE/Target/usbd_conf.c ****   {
 236:USB_DEVICE/Target/usbd_conf.c ****     /* Set SLEEPDEEP bit and SleepOnExit of Cortex System Control Register. */
 237:USB_DEVICE/Target/usbd_conf.c ****     SCB->SCR |= (uint32_t)((uint32_t)(SCB_SCR_SLEEPDEEP_Msk | SCB_SCR_SLEEPONEXIT_Msk));
 449              		.loc 1 237 5 is_stmt 1 view .LVU89
 450              		.loc 1 237 14 is_stmt 0 view .LVU90
 451 001e 034A     		ldr	r2, .L30
 452 0020 1369     		ldr	r3, [r2, #16]
 453 0022 43F00603 		orr	r3, r3, #6
 454 0026 1361     		str	r3, [r2, #16]
 455              	.L27:
 238:USB_DEVICE/Target/usbd_conf.c ****   }
 239:USB_DEVICE/Target/usbd_conf.c ****   /* USER CODE END 2 */
 240:USB_DEVICE/Target/usbd_conf.c **** }
 456              		.loc 1 240 1 view .LVU91
 457 0028 10BD     		pop	{r4, pc}
 458              	.LVL35:
 459              	.L31:
 460              		.loc 1 240 1 view .LVU92
 461 002a 00BF     		.align	2
 462              	.L30:
 463 002c 00ED00E0 		.word	-536810240
 464              		.cfi_endproc
 465              	.LFE246:
 467              		.section	.text.HAL_PCD_ResumeCallback,"ax",%progbits
 468              		.align	1
 469              		.global	HAL_PCD_ResumeCallback
 470              		.syntax unified
 471              		.thumb
 472              		.thumb_func
 473              		.fpu fpv4-sp-d16
 475              	HAL_PCD_ResumeCallback:
 476              	.LVL36:
 477              	.LFB247:
 241:USB_DEVICE/Target/usbd_conf.c **** 
 242:USB_DEVICE/Target/usbd_conf.c **** /**
 243:USB_DEVICE/Target/usbd_conf.c ****   * @brief  Resume callback.
 244:USB_DEVICE/Target/usbd_conf.c ****   * When Low power mode is enabled the debug cannot be used (IAR, Keil doesn't support it)
 245:USB_DEVICE/Target/usbd_conf.c ****   * @param  hpcd: PCD handle
 246:USB_DEVICE/Target/usbd_conf.c ****   * @retval None
 247:USB_DEVICE/Target/usbd_conf.c ****   */
 248:USB_DEVICE/Target/usbd_conf.c **** #if (USE_HAL_PCD_REGISTER_CALLBACKS == 1U)
 249:USB_DEVICE/Target/usbd_conf.c **** static void PCD_ResumeCallback(PCD_HandleTypeDef *hpcd)
 250:USB_DEVICE/Target/usbd_conf.c **** #else
ARM GAS  /tmp/ccwvGOOK.s 			page 14


 251:USB_DEVICE/Target/usbd_conf.c **** void HAL_PCD_ResumeCallback(PCD_HandleTypeDef *hpcd)
 252:USB_DEVICE/Target/usbd_conf.c **** #endif /* USE_HAL_PCD_REGISTER_CALLBACKS */
 253:USB_DEVICE/Target/usbd_conf.c **** {
 478              		.loc 1 253 1 is_stmt 1 view -0
 479              		.cfi_startproc
 480              		@ args = 0, pretend = 0, frame = 0
 481              		@ frame_needed = 0, uses_anonymous_args = 0
 482              		.loc 1 253 1 is_stmt 0 view .LVU94
 483 0000 08B5     		push	{r3, lr}
 484              	.LCFI11:
 485              		.cfi_def_cfa_offset 8
 486              		.cfi_offset 3, -8
 487              		.cfi_offset 14, -4
 254:USB_DEVICE/Target/usbd_conf.c ****   /* USER CODE BEGIN 3 */
 255:USB_DEVICE/Target/usbd_conf.c **** 
 256:USB_DEVICE/Target/usbd_conf.c ****   /* USER CODE END 3 */
 257:USB_DEVICE/Target/usbd_conf.c ****   USBD_LL_Resume((USBD_HandleTypeDef*)hpcd->pData);
 488              		.loc 1 257 3 is_stmt 1 view .LVU95
 489 0002 D0F80805 		ldr	r0, [r0, #1288]
 490              	.LVL37:
 491              		.loc 1 257 3 is_stmt 0 view .LVU96
 492 0006 FFF7FEFF 		bl	USBD_LL_Resume
 493              	.LVL38:
 258:USB_DEVICE/Target/usbd_conf.c **** }
 494              		.loc 1 258 1 view .LVU97
 495 000a 08BD     		pop	{r3, pc}
 496              		.cfi_endproc
 497              	.LFE247:
 499              		.section	.text.HAL_PCD_ISOOUTIncompleteCallback,"ax",%progbits
 500              		.align	1
 501              		.global	HAL_PCD_ISOOUTIncompleteCallback
 502              		.syntax unified
 503              		.thumb
 504              		.thumb_func
 505              		.fpu fpv4-sp-d16
 507              	HAL_PCD_ISOOUTIncompleteCallback:
 508              	.LVL39:
 509              	.LFB248:
 259:USB_DEVICE/Target/usbd_conf.c **** 
 260:USB_DEVICE/Target/usbd_conf.c **** /**
 261:USB_DEVICE/Target/usbd_conf.c ****   * @brief  ISOOUTIncomplete callback.
 262:USB_DEVICE/Target/usbd_conf.c ****   * @param  hpcd: PCD handle
 263:USB_DEVICE/Target/usbd_conf.c ****   * @param  epnum: Endpoint number
 264:USB_DEVICE/Target/usbd_conf.c ****   * @retval None
 265:USB_DEVICE/Target/usbd_conf.c ****   */
 266:USB_DEVICE/Target/usbd_conf.c **** #if (USE_HAL_PCD_REGISTER_CALLBACKS == 1U)
 267:USB_DEVICE/Target/usbd_conf.c **** static void PCD_ISOOUTIncompleteCallback(PCD_HandleTypeDef *hpcd, uint8_t epnum)
 268:USB_DEVICE/Target/usbd_conf.c **** #else
 269:USB_DEVICE/Target/usbd_conf.c **** void HAL_PCD_ISOOUTIncompleteCallback(PCD_HandleTypeDef *hpcd, uint8_t epnum)
 270:USB_DEVICE/Target/usbd_conf.c **** #endif /* USE_HAL_PCD_REGISTER_CALLBACKS */
 271:USB_DEVICE/Target/usbd_conf.c **** {
 510              		.loc 1 271 1 is_stmt 1 view -0
 511              		.cfi_startproc
 512              		@ args = 0, pretend = 0, frame = 0
 513              		@ frame_needed = 0, uses_anonymous_args = 0
 514              		.loc 1 271 1 is_stmt 0 view .LVU99
 515 0000 08B5     		push	{r3, lr}
ARM GAS  /tmp/ccwvGOOK.s 			page 15


 516              	.LCFI12:
 517              		.cfi_def_cfa_offset 8
 518              		.cfi_offset 3, -8
 519              		.cfi_offset 14, -4
 272:USB_DEVICE/Target/usbd_conf.c ****   USBD_LL_IsoOUTIncomplete((USBD_HandleTypeDef*)hpcd->pData, epnum);
 520              		.loc 1 272 3 is_stmt 1 view .LVU100
 521 0002 D0F80805 		ldr	r0, [r0, #1288]
 522              	.LVL40:
 523              		.loc 1 272 3 is_stmt 0 view .LVU101
 524 0006 FFF7FEFF 		bl	USBD_LL_IsoOUTIncomplete
 525              	.LVL41:
 273:USB_DEVICE/Target/usbd_conf.c **** }
 526              		.loc 1 273 1 view .LVU102
 527 000a 08BD     		pop	{r3, pc}
 528              		.cfi_endproc
 529              	.LFE248:
 531              		.section	.text.HAL_PCD_ISOINIncompleteCallback,"ax",%progbits
 532              		.align	1
 533              		.global	HAL_PCD_ISOINIncompleteCallback
 534              		.syntax unified
 535              		.thumb
 536              		.thumb_func
 537              		.fpu fpv4-sp-d16
 539              	HAL_PCD_ISOINIncompleteCallback:
 540              	.LVL42:
 541              	.LFB249:
 274:USB_DEVICE/Target/usbd_conf.c **** 
 275:USB_DEVICE/Target/usbd_conf.c **** /**
 276:USB_DEVICE/Target/usbd_conf.c ****   * @brief  ISOINIncomplete callback.
 277:USB_DEVICE/Target/usbd_conf.c ****   * @param  hpcd: PCD handle
 278:USB_DEVICE/Target/usbd_conf.c ****   * @param  epnum: Endpoint number
 279:USB_DEVICE/Target/usbd_conf.c ****   * @retval None
 280:USB_DEVICE/Target/usbd_conf.c ****   */
 281:USB_DEVICE/Target/usbd_conf.c **** #if (USE_HAL_PCD_REGISTER_CALLBACKS == 1U)
 282:USB_DEVICE/Target/usbd_conf.c **** static void PCD_ISOINIncompleteCallback(PCD_HandleTypeDef *hpcd, uint8_t epnum)
 283:USB_DEVICE/Target/usbd_conf.c **** #else
 284:USB_DEVICE/Target/usbd_conf.c **** void HAL_PCD_ISOINIncompleteCallback(PCD_HandleTypeDef *hpcd, uint8_t epnum)
 285:USB_DEVICE/Target/usbd_conf.c **** #endif /* USE_HAL_PCD_REGISTER_CALLBACKS */
 286:USB_DEVICE/Target/usbd_conf.c **** {
 542              		.loc 1 286 1 is_stmt 1 view -0
 543              		.cfi_startproc
 544              		@ args = 0, pretend = 0, frame = 0
 545              		@ frame_needed = 0, uses_anonymous_args = 0
 546              		.loc 1 286 1 is_stmt 0 view .LVU104
 547 0000 08B5     		push	{r3, lr}
 548              	.LCFI13:
 549              		.cfi_def_cfa_offset 8
 550              		.cfi_offset 3, -8
 551              		.cfi_offset 14, -4
 287:USB_DEVICE/Target/usbd_conf.c ****   USBD_LL_IsoINIncomplete((USBD_HandleTypeDef*)hpcd->pData, epnum);
 552              		.loc 1 287 3 is_stmt 1 view .LVU105
 553 0002 D0F80805 		ldr	r0, [r0, #1288]
 554              	.LVL43:
 555              		.loc 1 287 3 is_stmt 0 view .LVU106
 556 0006 FFF7FEFF 		bl	USBD_LL_IsoINIncomplete
 557              	.LVL44:
 288:USB_DEVICE/Target/usbd_conf.c **** }
ARM GAS  /tmp/ccwvGOOK.s 			page 16


 558              		.loc 1 288 1 view .LVU107
 559 000a 08BD     		pop	{r3, pc}
 560              		.cfi_endproc
 561              	.LFE249:
 563              		.section	.text.HAL_PCD_ConnectCallback,"ax",%progbits
 564              		.align	1
 565              		.global	HAL_PCD_ConnectCallback
 566              		.syntax unified
 567              		.thumb
 568              		.thumb_func
 569              		.fpu fpv4-sp-d16
 571              	HAL_PCD_ConnectCallback:
 572              	.LVL45:
 573              	.LFB250:
 289:USB_DEVICE/Target/usbd_conf.c **** 
 290:USB_DEVICE/Target/usbd_conf.c **** /**
 291:USB_DEVICE/Target/usbd_conf.c ****   * @brief  Connect callback.
 292:USB_DEVICE/Target/usbd_conf.c ****   * @param  hpcd: PCD handle
 293:USB_DEVICE/Target/usbd_conf.c ****   * @retval None
 294:USB_DEVICE/Target/usbd_conf.c ****   */
 295:USB_DEVICE/Target/usbd_conf.c **** #if (USE_HAL_PCD_REGISTER_CALLBACKS == 1U)
 296:USB_DEVICE/Target/usbd_conf.c **** static void PCD_ConnectCallback(PCD_HandleTypeDef *hpcd)
 297:USB_DEVICE/Target/usbd_conf.c **** #else
 298:USB_DEVICE/Target/usbd_conf.c **** void HAL_PCD_ConnectCallback(PCD_HandleTypeDef *hpcd)
 299:USB_DEVICE/Target/usbd_conf.c **** #endif /* USE_HAL_PCD_REGISTER_CALLBACKS */
 300:USB_DEVICE/Target/usbd_conf.c **** {
 574              		.loc 1 300 1 is_stmt 1 view -0
 575              		.cfi_startproc
 576              		@ args = 0, pretend = 0, frame = 0
 577              		@ frame_needed = 0, uses_anonymous_args = 0
 578              		.loc 1 300 1 is_stmt 0 view .LVU109
 579 0000 08B5     		push	{r3, lr}
 580              	.LCFI14:
 581              		.cfi_def_cfa_offset 8
 582              		.cfi_offset 3, -8
 583              		.cfi_offset 14, -4
 301:USB_DEVICE/Target/usbd_conf.c ****   USBD_LL_DevConnected((USBD_HandleTypeDef*)hpcd->pData);
 584              		.loc 1 301 3 is_stmt 1 view .LVU110
 585 0002 D0F80805 		ldr	r0, [r0, #1288]
 586              	.LVL46:
 587              		.loc 1 301 3 is_stmt 0 view .LVU111
 588 0006 FFF7FEFF 		bl	USBD_LL_DevConnected
 589              	.LVL47:
 302:USB_DEVICE/Target/usbd_conf.c **** }
 590              		.loc 1 302 1 view .LVU112
 591 000a 08BD     		pop	{r3, pc}
 592              		.cfi_endproc
 593              	.LFE250:
 595              		.section	.text.HAL_PCD_DisconnectCallback,"ax",%progbits
 596              		.align	1
 597              		.global	HAL_PCD_DisconnectCallback
 598              		.syntax unified
 599              		.thumb
 600              		.thumb_func
 601              		.fpu fpv4-sp-d16
 603              	HAL_PCD_DisconnectCallback:
 604              	.LVL48:
ARM GAS  /tmp/ccwvGOOK.s 			page 17


 605              	.LFB251:
 303:USB_DEVICE/Target/usbd_conf.c **** 
 304:USB_DEVICE/Target/usbd_conf.c **** /**
 305:USB_DEVICE/Target/usbd_conf.c ****   * @brief  Disconnect callback.
 306:USB_DEVICE/Target/usbd_conf.c ****   * @param  hpcd: PCD handle
 307:USB_DEVICE/Target/usbd_conf.c ****   * @retval None
 308:USB_DEVICE/Target/usbd_conf.c ****   */
 309:USB_DEVICE/Target/usbd_conf.c **** #if (USE_HAL_PCD_REGISTER_CALLBACKS == 1U)
 310:USB_DEVICE/Target/usbd_conf.c **** static void PCD_DisconnectCallback(PCD_HandleTypeDef *hpcd)
 311:USB_DEVICE/Target/usbd_conf.c **** #else
 312:USB_DEVICE/Target/usbd_conf.c **** void HAL_PCD_DisconnectCallback(PCD_HandleTypeDef *hpcd)
 313:USB_DEVICE/Target/usbd_conf.c **** #endif /* USE_HAL_PCD_REGISTER_CALLBACKS */
 314:USB_DEVICE/Target/usbd_conf.c **** {
 606              		.loc 1 314 1 is_stmt 1 view -0
 607              		.cfi_startproc
 608              		@ args = 0, pretend = 0, frame = 0
 609              		@ frame_needed = 0, uses_anonymous_args = 0
 610              		.loc 1 314 1 is_stmt 0 view .LVU114
 611 0000 08B5     		push	{r3, lr}
 612              	.LCFI15:
 613              		.cfi_def_cfa_offset 8
 614              		.cfi_offset 3, -8
 615              		.cfi_offset 14, -4
 315:USB_DEVICE/Target/usbd_conf.c ****   USBD_LL_DevDisconnected((USBD_HandleTypeDef*)hpcd->pData);
 616              		.loc 1 315 3 is_stmt 1 view .LVU115
 617 0002 D0F80805 		ldr	r0, [r0, #1288]
 618              	.LVL49:
 619              		.loc 1 315 3 is_stmt 0 view .LVU116
 620 0006 FFF7FEFF 		bl	USBD_LL_DevDisconnected
 621              	.LVL50:
 316:USB_DEVICE/Target/usbd_conf.c **** }
 622              		.loc 1 316 1 view .LVU117
 623 000a 08BD     		pop	{r3, pc}
 624              		.cfi_endproc
 625              	.LFE251:
 627              		.section	.text.USBD_LL_Init,"ax",%progbits
 628              		.align	1
 629              		.global	USBD_LL_Init
 630              		.syntax unified
 631              		.thumb
 632              		.thumb_func
 633              		.fpu fpv4-sp-d16
 635              	USBD_LL_Init:
 636              	.LVL51:
 637              	.LFB252:
 317:USB_DEVICE/Target/usbd_conf.c **** 
 318:USB_DEVICE/Target/usbd_conf.c **** /*******************************************************************************
 319:USB_DEVICE/Target/usbd_conf.c ****                        LL Driver Interface (USB Device Library --> PCD)
 320:USB_DEVICE/Target/usbd_conf.c **** *******************************************************************************/
 321:USB_DEVICE/Target/usbd_conf.c **** 
 322:USB_DEVICE/Target/usbd_conf.c **** /**
 323:USB_DEVICE/Target/usbd_conf.c ****   * @brief  Initializes the low level portion of the device driver.
 324:USB_DEVICE/Target/usbd_conf.c ****   * @param  pdev: Device handle
 325:USB_DEVICE/Target/usbd_conf.c ****   * @retval USBD status
 326:USB_DEVICE/Target/usbd_conf.c ****   */
 327:USB_DEVICE/Target/usbd_conf.c **** USBD_StatusTypeDef USBD_LL_Init(USBD_HandleTypeDef *pdev)
 328:USB_DEVICE/Target/usbd_conf.c **** {
ARM GAS  /tmp/ccwvGOOK.s 			page 18


 638              		.loc 1 328 1 is_stmt 1 view -0
 639              		.cfi_startproc
 640              		@ args = 0, pretend = 0, frame = 0
 641              		@ frame_needed = 0, uses_anonymous_args = 0
 329:USB_DEVICE/Target/usbd_conf.c ****   /* Init USB Ip. */
 330:USB_DEVICE/Target/usbd_conf.c ****   if (pdev->id == DEVICE_FS) {
 642              		.loc 1 330 3 view .LVU119
 643              		.loc 1 330 11 is_stmt 0 view .LVU120
 644 0000 0378     		ldrb	r3, [r0]	@ zero_extendqisi2
 645              		.loc 1 330 6 view .LVU121
 646 0002 0BB1     		cbz	r3, .L49
 331:USB_DEVICE/Target/usbd_conf.c ****   /* Link the driver to the stack. */
 332:USB_DEVICE/Target/usbd_conf.c ****   hpcd_USB_OTG_FS.pData = pdev;
 333:USB_DEVICE/Target/usbd_conf.c ****   pdev->pData = &hpcd_USB_OTG_FS;
 334:USB_DEVICE/Target/usbd_conf.c **** 
 335:USB_DEVICE/Target/usbd_conf.c ****   hpcd_USB_OTG_FS.Instance = USB_OTG_FS;
 336:USB_DEVICE/Target/usbd_conf.c ****   hpcd_USB_OTG_FS.Init.dev_endpoints = 4;
 337:USB_DEVICE/Target/usbd_conf.c ****   hpcd_USB_OTG_FS.Init.speed = PCD_SPEED_FULL;
 338:USB_DEVICE/Target/usbd_conf.c ****   hpcd_USB_OTG_FS.Init.dma_enable = DISABLE;
 339:USB_DEVICE/Target/usbd_conf.c ****   hpcd_USB_OTG_FS.Init.phy_itface = PCD_PHY_EMBEDDED;
 340:USB_DEVICE/Target/usbd_conf.c ****   hpcd_USB_OTG_FS.Init.Sof_enable = DISABLE;
 341:USB_DEVICE/Target/usbd_conf.c ****   hpcd_USB_OTG_FS.Init.low_power_enable = DISABLE;
 342:USB_DEVICE/Target/usbd_conf.c ****   hpcd_USB_OTG_FS.Init.lpm_enable = DISABLE;
 343:USB_DEVICE/Target/usbd_conf.c ****   hpcd_USB_OTG_FS.Init.vbus_sensing_enable = DISABLE;
 344:USB_DEVICE/Target/usbd_conf.c ****   hpcd_USB_OTG_FS.Init.use_dedicated_ep1 = DISABLE;
 345:USB_DEVICE/Target/usbd_conf.c ****   if (HAL_PCD_Init(&hpcd_USB_OTG_FS) != HAL_OK)
 346:USB_DEVICE/Target/usbd_conf.c ****   {
 347:USB_DEVICE/Target/usbd_conf.c ****     Error_Handler( );
 348:USB_DEVICE/Target/usbd_conf.c ****   }
 349:USB_DEVICE/Target/usbd_conf.c **** 
 350:USB_DEVICE/Target/usbd_conf.c **** #if (USE_HAL_PCD_REGISTER_CALLBACKS == 1U)
 351:USB_DEVICE/Target/usbd_conf.c ****   /* Register USB PCD CallBacks */
 352:USB_DEVICE/Target/usbd_conf.c ****   HAL_PCD_RegisterCallback(&hpcd_USB_OTG_FS, HAL_PCD_SOF_CB_ID, PCD_SOFCallback);
 353:USB_DEVICE/Target/usbd_conf.c ****   HAL_PCD_RegisterCallback(&hpcd_USB_OTG_FS, HAL_PCD_SETUPSTAGE_CB_ID, PCD_SetupStageCallback);
 354:USB_DEVICE/Target/usbd_conf.c ****   HAL_PCD_RegisterCallback(&hpcd_USB_OTG_FS, HAL_PCD_RESET_CB_ID, PCD_ResetCallback);
 355:USB_DEVICE/Target/usbd_conf.c ****   HAL_PCD_RegisterCallback(&hpcd_USB_OTG_FS, HAL_PCD_SUSPEND_CB_ID, PCD_SuspendCallback);
 356:USB_DEVICE/Target/usbd_conf.c ****   HAL_PCD_RegisterCallback(&hpcd_USB_OTG_FS, HAL_PCD_RESUME_CB_ID, PCD_ResumeCallback);
 357:USB_DEVICE/Target/usbd_conf.c ****   HAL_PCD_RegisterCallback(&hpcd_USB_OTG_FS, HAL_PCD_CONNECT_CB_ID, PCD_ConnectCallback);
 358:USB_DEVICE/Target/usbd_conf.c ****   HAL_PCD_RegisterCallback(&hpcd_USB_OTG_FS, HAL_PCD_DISCONNECT_CB_ID, PCD_DisconnectCallback);
 359:USB_DEVICE/Target/usbd_conf.c **** 
 360:USB_DEVICE/Target/usbd_conf.c ****   HAL_PCD_RegisterDataOutStageCallback(&hpcd_USB_OTG_FS, PCD_DataOutStageCallback);
 361:USB_DEVICE/Target/usbd_conf.c ****   HAL_PCD_RegisterDataInStageCallback(&hpcd_USB_OTG_FS, PCD_DataInStageCallback);
 362:USB_DEVICE/Target/usbd_conf.c ****   HAL_PCD_RegisterIsoOutIncpltCallback(&hpcd_USB_OTG_FS, PCD_ISOOUTIncompleteCallback);
 363:USB_DEVICE/Target/usbd_conf.c ****   HAL_PCD_RegisterIsoInIncpltCallback(&hpcd_USB_OTG_FS, PCD_ISOINIncompleteCallback);
 364:USB_DEVICE/Target/usbd_conf.c **** #endif /* USE_HAL_PCD_REGISTER_CALLBACKS */
 365:USB_DEVICE/Target/usbd_conf.c ****   HAL_PCDEx_SetRxFiFo(&hpcd_USB_OTG_FS, 0x80);
 366:USB_DEVICE/Target/usbd_conf.c ****   HAL_PCDEx_SetTxFiFo(&hpcd_USB_OTG_FS, 0, 0x40);
 367:USB_DEVICE/Target/usbd_conf.c ****   HAL_PCDEx_SetTxFiFo(&hpcd_USB_OTG_FS, 1, 0x80);
 368:USB_DEVICE/Target/usbd_conf.c ****   }
 369:USB_DEVICE/Target/usbd_conf.c ****   return USBD_OK;
 647              		.loc 1 369 3 is_stmt 1 view .LVU122
 370:USB_DEVICE/Target/usbd_conf.c **** }
 648              		.loc 1 370 1 is_stmt 0 view .LVU123
 649 0004 0020     		movs	r0, #0
 650              	.LVL52:
 651              		.loc 1 370 1 view .LVU124
 652 0006 7047     		bx	lr
ARM GAS  /tmp/ccwvGOOK.s 			page 19


 653              	.LVL53:
 654              	.L49:
 328:USB_DEVICE/Target/usbd_conf.c ****   /* Init USB Ip. */
 655              		.loc 1 328 1 view .LVU125
 656 0008 10B5     		push	{r4, lr}
 657              	.LCFI16:
 658              		.cfi_def_cfa_offset 8
 659              		.cfi_offset 4, -8
 660              		.cfi_offset 14, -4
 661 000a 0346     		mov	r3, r0
 332:USB_DEVICE/Target/usbd_conf.c ****   pdev->pData = &hpcd_USB_OTG_FS;
 662              		.loc 1 332 3 is_stmt 1 view .LVU126
 332:USB_DEVICE/Target/usbd_conf.c ****   pdev->pData = &hpcd_USB_OTG_FS;
 663              		.loc 1 332 25 is_stmt 0 view .LVU127
 664 000c 1548     		ldr	r0, .L51
 665              	.LVL54:
 332:USB_DEVICE/Target/usbd_conf.c ****   pdev->pData = &hpcd_USB_OTG_FS;
 666              		.loc 1 332 25 view .LVU128
 667 000e C0F80835 		str	r3, [r0, #1288]
 333:USB_DEVICE/Target/usbd_conf.c **** 
 668              		.loc 1 333 3 is_stmt 1 view .LVU129
 333:USB_DEVICE/Target/usbd_conf.c **** 
 669              		.loc 1 333 15 is_stmt 0 view .LVU130
 670 0012 C3F8C802 		str	r0, [r3, #712]
 335:USB_DEVICE/Target/usbd_conf.c ****   hpcd_USB_OTG_FS.Init.dev_endpoints = 4;
 671              		.loc 1 335 3 is_stmt 1 view .LVU131
 335:USB_DEVICE/Target/usbd_conf.c ****   hpcd_USB_OTG_FS.Init.dev_endpoints = 4;
 672              		.loc 1 335 28 is_stmt 0 view .LVU132
 673 0016 4FF0A043 		mov	r3, #1342177280
 674              	.LVL55:
 335:USB_DEVICE/Target/usbd_conf.c ****   hpcd_USB_OTG_FS.Init.dev_endpoints = 4;
 675              		.loc 1 335 28 view .LVU133
 676 001a 0360     		str	r3, [r0]
 336:USB_DEVICE/Target/usbd_conf.c ****   hpcd_USB_OTG_FS.Init.speed = PCD_SPEED_FULL;
 677              		.loc 1 336 3 is_stmt 1 view .LVU134
 336:USB_DEVICE/Target/usbd_conf.c ****   hpcd_USB_OTG_FS.Init.speed = PCD_SPEED_FULL;
 678              		.loc 1 336 38 is_stmt 0 view .LVU135
 679 001c 0423     		movs	r3, #4
 680 001e 4360     		str	r3, [r0, #4]
 337:USB_DEVICE/Target/usbd_conf.c ****   hpcd_USB_OTG_FS.Init.dma_enable = DISABLE;
 681              		.loc 1 337 3 is_stmt 1 view .LVU136
 337:USB_DEVICE/Target/usbd_conf.c ****   hpcd_USB_OTG_FS.Init.dma_enable = DISABLE;
 682              		.loc 1 337 30 is_stmt 0 view .LVU137
 683 0020 0222     		movs	r2, #2
 684 0022 C260     		str	r2, [r0, #12]
 338:USB_DEVICE/Target/usbd_conf.c ****   hpcd_USB_OTG_FS.Init.phy_itface = PCD_PHY_EMBEDDED;
 685              		.loc 1 338 3 is_stmt 1 view .LVU138
 338:USB_DEVICE/Target/usbd_conf.c ****   hpcd_USB_OTG_FS.Init.phy_itface = PCD_PHY_EMBEDDED;
 686              		.loc 1 338 35 is_stmt 0 view .LVU139
 687 0024 0023     		movs	r3, #0
 688 0026 0361     		str	r3, [r0, #16]
 339:USB_DEVICE/Target/usbd_conf.c ****   hpcd_USB_OTG_FS.Init.Sof_enable = DISABLE;
 689              		.loc 1 339 3 is_stmt 1 view .LVU140
 339:USB_DEVICE/Target/usbd_conf.c ****   hpcd_USB_OTG_FS.Init.Sof_enable = DISABLE;
 690              		.loc 1 339 35 is_stmt 0 view .LVU141
 691 0028 8261     		str	r2, [r0, #24]
 340:USB_DEVICE/Target/usbd_conf.c ****   hpcd_USB_OTG_FS.Init.low_power_enable = DISABLE;
ARM GAS  /tmp/ccwvGOOK.s 			page 20


 692              		.loc 1 340 3 is_stmt 1 view .LVU142
 340:USB_DEVICE/Target/usbd_conf.c ****   hpcd_USB_OTG_FS.Init.low_power_enable = DISABLE;
 693              		.loc 1 340 35 is_stmt 0 view .LVU143
 694 002a C361     		str	r3, [r0, #28]
 341:USB_DEVICE/Target/usbd_conf.c ****   hpcd_USB_OTG_FS.Init.lpm_enable = DISABLE;
 695              		.loc 1 341 3 is_stmt 1 view .LVU144
 341:USB_DEVICE/Target/usbd_conf.c ****   hpcd_USB_OTG_FS.Init.lpm_enable = DISABLE;
 696              		.loc 1 341 41 is_stmt 0 view .LVU145
 697 002c 0362     		str	r3, [r0, #32]
 342:USB_DEVICE/Target/usbd_conf.c ****   hpcd_USB_OTG_FS.Init.vbus_sensing_enable = DISABLE;
 698              		.loc 1 342 3 is_stmt 1 view .LVU146
 342:USB_DEVICE/Target/usbd_conf.c ****   hpcd_USB_OTG_FS.Init.vbus_sensing_enable = DISABLE;
 699              		.loc 1 342 35 is_stmt 0 view .LVU147
 700 002e 4362     		str	r3, [r0, #36]
 343:USB_DEVICE/Target/usbd_conf.c ****   hpcd_USB_OTG_FS.Init.use_dedicated_ep1 = DISABLE;
 701              		.loc 1 343 3 is_stmt 1 view .LVU148
 343:USB_DEVICE/Target/usbd_conf.c ****   hpcd_USB_OTG_FS.Init.use_dedicated_ep1 = DISABLE;
 702              		.loc 1 343 44 is_stmt 0 view .LVU149
 703 0030 C362     		str	r3, [r0, #44]
 344:USB_DEVICE/Target/usbd_conf.c ****   if (HAL_PCD_Init(&hpcd_USB_OTG_FS) != HAL_OK)
 704              		.loc 1 344 3 is_stmt 1 view .LVU150
 344:USB_DEVICE/Target/usbd_conf.c ****   if (HAL_PCD_Init(&hpcd_USB_OTG_FS) != HAL_OK)
 705              		.loc 1 344 42 is_stmt 0 view .LVU151
 706 0032 0363     		str	r3, [r0, #48]
 345:USB_DEVICE/Target/usbd_conf.c ****   {
 707              		.loc 1 345 3 is_stmt 1 view .LVU152
 345:USB_DEVICE/Target/usbd_conf.c ****   {
 708              		.loc 1 345 7 is_stmt 0 view .LVU153
 709 0034 FFF7FEFF 		bl	HAL_PCD_Init
 710              	.LVL56:
 345:USB_DEVICE/Target/usbd_conf.c ****   {
 711              		.loc 1 345 6 view .LVU154
 712 0038 80B9     		cbnz	r0, .L50
 713              	.L44:
 365:USB_DEVICE/Target/usbd_conf.c ****   HAL_PCDEx_SetTxFiFo(&hpcd_USB_OTG_FS, 0, 0x40);
 714              		.loc 1 365 3 is_stmt 1 view .LVU155
 715 003a 0A4C     		ldr	r4, .L51
 716 003c 8021     		movs	r1, #128
 717 003e 2046     		mov	r0, r4
 718 0040 FFF7FEFF 		bl	HAL_PCDEx_SetRxFiFo
 719              	.LVL57:
 366:USB_DEVICE/Target/usbd_conf.c ****   HAL_PCDEx_SetTxFiFo(&hpcd_USB_OTG_FS, 1, 0x80);
 720              		.loc 1 366 3 view .LVU156
 721 0044 4022     		movs	r2, #64
 722 0046 0021     		movs	r1, #0
 723 0048 2046     		mov	r0, r4
 724 004a FFF7FEFF 		bl	HAL_PCDEx_SetTxFiFo
 725              	.LVL58:
 367:USB_DEVICE/Target/usbd_conf.c ****   }
 726              		.loc 1 367 3 view .LVU157
 727 004e 8022     		movs	r2, #128
 728 0050 0121     		movs	r1, #1
 729 0052 2046     		mov	r0, r4
 730 0054 FFF7FEFF 		bl	HAL_PCDEx_SetTxFiFo
 731              	.LVL59:
 369:USB_DEVICE/Target/usbd_conf.c **** }
 732              		.loc 1 369 3 view .LVU158
ARM GAS  /tmp/ccwvGOOK.s 			page 21


 733              		.loc 1 370 1 is_stmt 0 view .LVU159
 734 0058 0020     		movs	r0, #0
 735 005a 10BD     		pop	{r4, pc}
 736              	.L50:
 347:USB_DEVICE/Target/usbd_conf.c ****   }
 737              		.loc 1 347 5 is_stmt 1 view .LVU160
 738 005c FFF7FEFF 		bl	Error_Handler
 739              	.LVL60:
 740 0060 EBE7     		b	.L44
 741              	.L52:
 742 0062 00BF     		.align	2
 743              	.L51:
 744 0064 00000000 		.word	hpcd_USB_OTG_FS
 745              		.cfi_endproc
 746              	.LFE252:
 748              		.section	.text.USBD_LL_IsStallEP,"ax",%progbits
 749              		.align	1
 750              		.global	USBD_LL_IsStallEP
 751              		.syntax unified
 752              		.thumb
 753              		.thumb_func
 754              		.fpu fpv4-sp-d16
 756              	USBD_LL_IsStallEP:
 757              	.LVL61:
 758              	.LFB261:
 371:USB_DEVICE/Target/usbd_conf.c **** 
 372:USB_DEVICE/Target/usbd_conf.c **** /**
 373:USB_DEVICE/Target/usbd_conf.c ****   * @brief  De-Initializes the low level portion of the device driver.
 374:USB_DEVICE/Target/usbd_conf.c ****   * @param  pdev: Device handle
 375:USB_DEVICE/Target/usbd_conf.c ****   * @retval USBD status
 376:USB_DEVICE/Target/usbd_conf.c ****   */
 377:USB_DEVICE/Target/usbd_conf.c **** USBD_StatusTypeDef USBD_LL_DeInit(USBD_HandleTypeDef *pdev)
 378:USB_DEVICE/Target/usbd_conf.c **** {
 379:USB_DEVICE/Target/usbd_conf.c ****   HAL_StatusTypeDef hal_status = HAL_OK;
 380:USB_DEVICE/Target/usbd_conf.c ****   USBD_StatusTypeDef usb_status = USBD_OK;
 381:USB_DEVICE/Target/usbd_conf.c **** 
 382:USB_DEVICE/Target/usbd_conf.c ****   hal_status = HAL_PCD_DeInit(pdev->pData);
 383:USB_DEVICE/Target/usbd_conf.c **** 
 384:USB_DEVICE/Target/usbd_conf.c ****   usb_status =  USBD_Get_USB_Status(hal_status);
 385:USB_DEVICE/Target/usbd_conf.c **** 
 386:USB_DEVICE/Target/usbd_conf.c ****   return usb_status;
 387:USB_DEVICE/Target/usbd_conf.c **** }
 388:USB_DEVICE/Target/usbd_conf.c **** 
 389:USB_DEVICE/Target/usbd_conf.c **** /**
 390:USB_DEVICE/Target/usbd_conf.c ****   * @brief  Starts the low level portion of the device driver.
 391:USB_DEVICE/Target/usbd_conf.c ****   * @param  pdev: Device handle
 392:USB_DEVICE/Target/usbd_conf.c ****   * @retval USBD status
 393:USB_DEVICE/Target/usbd_conf.c ****   */
 394:USB_DEVICE/Target/usbd_conf.c **** USBD_StatusTypeDef USBD_LL_Start(USBD_HandleTypeDef *pdev)
 395:USB_DEVICE/Target/usbd_conf.c **** {
 396:USB_DEVICE/Target/usbd_conf.c ****   HAL_StatusTypeDef hal_status = HAL_OK;
 397:USB_DEVICE/Target/usbd_conf.c ****   USBD_StatusTypeDef usb_status = USBD_OK;
 398:USB_DEVICE/Target/usbd_conf.c **** 
 399:USB_DEVICE/Target/usbd_conf.c ****   hal_status = HAL_PCD_Start(pdev->pData);
 400:USB_DEVICE/Target/usbd_conf.c **** 
 401:USB_DEVICE/Target/usbd_conf.c ****   usb_status =  USBD_Get_USB_Status(hal_status);
 402:USB_DEVICE/Target/usbd_conf.c **** 
ARM GAS  /tmp/ccwvGOOK.s 			page 22


 403:USB_DEVICE/Target/usbd_conf.c ****   return usb_status;
 404:USB_DEVICE/Target/usbd_conf.c **** }
 405:USB_DEVICE/Target/usbd_conf.c **** 
 406:USB_DEVICE/Target/usbd_conf.c **** /**
 407:USB_DEVICE/Target/usbd_conf.c ****   * @brief  Stops the low level portion of the device driver.
 408:USB_DEVICE/Target/usbd_conf.c ****   * @param  pdev: Device handle
 409:USB_DEVICE/Target/usbd_conf.c ****   * @retval USBD status
 410:USB_DEVICE/Target/usbd_conf.c ****   */
 411:USB_DEVICE/Target/usbd_conf.c **** USBD_StatusTypeDef USBD_LL_Stop(USBD_HandleTypeDef *pdev)
 412:USB_DEVICE/Target/usbd_conf.c **** {
 413:USB_DEVICE/Target/usbd_conf.c ****   HAL_StatusTypeDef hal_status = HAL_OK;
 414:USB_DEVICE/Target/usbd_conf.c ****   USBD_StatusTypeDef usb_status = USBD_OK;
 415:USB_DEVICE/Target/usbd_conf.c **** 
 416:USB_DEVICE/Target/usbd_conf.c ****   hal_status = HAL_PCD_Stop(pdev->pData);
 417:USB_DEVICE/Target/usbd_conf.c **** 
 418:USB_DEVICE/Target/usbd_conf.c ****   usb_status =  USBD_Get_USB_Status(hal_status);
 419:USB_DEVICE/Target/usbd_conf.c **** 
 420:USB_DEVICE/Target/usbd_conf.c ****   return usb_status;
 421:USB_DEVICE/Target/usbd_conf.c **** }
 422:USB_DEVICE/Target/usbd_conf.c **** 
 423:USB_DEVICE/Target/usbd_conf.c **** /**
 424:USB_DEVICE/Target/usbd_conf.c ****   * @brief  Opens an endpoint of the low level driver.
 425:USB_DEVICE/Target/usbd_conf.c ****   * @param  pdev: Device handle
 426:USB_DEVICE/Target/usbd_conf.c ****   * @param  ep_addr: Endpoint number
 427:USB_DEVICE/Target/usbd_conf.c ****   * @param  ep_type: Endpoint type
 428:USB_DEVICE/Target/usbd_conf.c ****   * @param  ep_mps: Endpoint max packet size
 429:USB_DEVICE/Target/usbd_conf.c ****   * @retval USBD status
 430:USB_DEVICE/Target/usbd_conf.c ****   */
 431:USB_DEVICE/Target/usbd_conf.c **** USBD_StatusTypeDef USBD_LL_OpenEP(USBD_HandleTypeDef *pdev, uint8_t ep_addr, uint8_t ep_type, uint1
 432:USB_DEVICE/Target/usbd_conf.c **** {
 433:USB_DEVICE/Target/usbd_conf.c ****   HAL_StatusTypeDef hal_status = HAL_OK;
 434:USB_DEVICE/Target/usbd_conf.c ****   USBD_StatusTypeDef usb_status = USBD_OK;
 435:USB_DEVICE/Target/usbd_conf.c **** 
 436:USB_DEVICE/Target/usbd_conf.c ****   hal_status = HAL_PCD_EP_Open(pdev->pData, ep_addr, ep_mps, ep_type);
 437:USB_DEVICE/Target/usbd_conf.c **** 
 438:USB_DEVICE/Target/usbd_conf.c ****   usb_status =  USBD_Get_USB_Status(hal_status);
 439:USB_DEVICE/Target/usbd_conf.c **** 
 440:USB_DEVICE/Target/usbd_conf.c ****   return usb_status;
 441:USB_DEVICE/Target/usbd_conf.c **** }
 442:USB_DEVICE/Target/usbd_conf.c **** 
 443:USB_DEVICE/Target/usbd_conf.c **** /**
 444:USB_DEVICE/Target/usbd_conf.c ****   * @brief  Closes an endpoint of the low level driver.
 445:USB_DEVICE/Target/usbd_conf.c ****   * @param  pdev: Device handle
 446:USB_DEVICE/Target/usbd_conf.c ****   * @param  ep_addr: Endpoint number
 447:USB_DEVICE/Target/usbd_conf.c ****   * @retval USBD status
 448:USB_DEVICE/Target/usbd_conf.c ****   */
 449:USB_DEVICE/Target/usbd_conf.c **** USBD_StatusTypeDef USBD_LL_CloseEP(USBD_HandleTypeDef *pdev, uint8_t ep_addr)
 450:USB_DEVICE/Target/usbd_conf.c **** {
 451:USB_DEVICE/Target/usbd_conf.c ****   HAL_StatusTypeDef hal_status = HAL_OK;
 452:USB_DEVICE/Target/usbd_conf.c ****   USBD_StatusTypeDef usb_status = USBD_OK;
 453:USB_DEVICE/Target/usbd_conf.c **** 
 454:USB_DEVICE/Target/usbd_conf.c ****   hal_status = HAL_PCD_EP_Close(pdev->pData, ep_addr);
 455:USB_DEVICE/Target/usbd_conf.c **** 
 456:USB_DEVICE/Target/usbd_conf.c ****   usb_status =  USBD_Get_USB_Status(hal_status);
 457:USB_DEVICE/Target/usbd_conf.c **** 
 458:USB_DEVICE/Target/usbd_conf.c ****   return usb_status;
 459:USB_DEVICE/Target/usbd_conf.c **** }
ARM GAS  /tmp/ccwvGOOK.s 			page 23


 460:USB_DEVICE/Target/usbd_conf.c **** 
 461:USB_DEVICE/Target/usbd_conf.c **** /**
 462:USB_DEVICE/Target/usbd_conf.c ****   * @brief  Flushes an endpoint of the Low Level Driver.
 463:USB_DEVICE/Target/usbd_conf.c ****   * @param  pdev: Device handle
 464:USB_DEVICE/Target/usbd_conf.c ****   * @param  ep_addr: Endpoint number
 465:USB_DEVICE/Target/usbd_conf.c ****   * @retval USBD status
 466:USB_DEVICE/Target/usbd_conf.c ****   */
 467:USB_DEVICE/Target/usbd_conf.c **** USBD_StatusTypeDef USBD_LL_FlushEP(USBD_HandleTypeDef *pdev, uint8_t ep_addr)
 468:USB_DEVICE/Target/usbd_conf.c **** {
 469:USB_DEVICE/Target/usbd_conf.c ****   HAL_StatusTypeDef hal_status = HAL_OK;
 470:USB_DEVICE/Target/usbd_conf.c ****   USBD_StatusTypeDef usb_status = USBD_OK;
 471:USB_DEVICE/Target/usbd_conf.c **** 
 472:USB_DEVICE/Target/usbd_conf.c ****   hal_status = HAL_PCD_EP_Flush(pdev->pData, ep_addr);
 473:USB_DEVICE/Target/usbd_conf.c **** 
 474:USB_DEVICE/Target/usbd_conf.c ****   usb_status =  USBD_Get_USB_Status(hal_status);
 475:USB_DEVICE/Target/usbd_conf.c **** 
 476:USB_DEVICE/Target/usbd_conf.c ****   return usb_status;
 477:USB_DEVICE/Target/usbd_conf.c **** }
 478:USB_DEVICE/Target/usbd_conf.c **** 
 479:USB_DEVICE/Target/usbd_conf.c **** /**
 480:USB_DEVICE/Target/usbd_conf.c ****   * @brief  Sets a Stall condition on an endpoint of the Low Level Driver.
 481:USB_DEVICE/Target/usbd_conf.c ****   * @param  pdev: Device handle
 482:USB_DEVICE/Target/usbd_conf.c ****   * @param  ep_addr: Endpoint number
 483:USB_DEVICE/Target/usbd_conf.c ****   * @retval USBD status
 484:USB_DEVICE/Target/usbd_conf.c ****   */
 485:USB_DEVICE/Target/usbd_conf.c **** USBD_StatusTypeDef USBD_LL_StallEP(USBD_HandleTypeDef *pdev, uint8_t ep_addr)
 486:USB_DEVICE/Target/usbd_conf.c **** {
 487:USB_DEVICE/Target/usbd_conf.c ****   HAL_StatusTypeDef hal_status = HAL_OK;
 488:USB_DEVICE/Target/usbd_conf.c ****   USBD_StatusTypeDef usb_status = USBD_OK;
 489:USB_DEVICE/Target/usbd_conf.c **** 
 490:USB_DEVICE/Target/usbd_conf.c ****   hal_status = HAL_PCD_EP_SetStall(pdev->pData, ep_addr);
 491:USB_DEVICE/Target/usbd_conf.c **** 
 492:USB_DEVICE/Target/usbd_conf.c ****   usb_status =  USBD_Get_USB_Status(hal_status);
 493:USB_DEVICE/Target/usbd_conf.c **** 
 494:USB_DEVICE/Target/usbd_conf.c ****   return usb_status;
 495:USB_DEVICE/Target/usbd_conf.c **** }
 496:USB_DEVICE/Target/usbd_conf.c **** 
 497:USB_DEVICE/Target/usbd_conf.c **** /**
 498:USB_DEVICE/Target/usbd_conf.c ****   * @brief  Clears a Stall condition on an endpoint of the Low Level Driver.
 499:USB_DEVICE/Target/usbd_conf.c ****   * @param  pdev: Device handle
 500:USB_DEVICE/Target/usbd_conf.c ****   * @param  ep_addr: Endpoint number
 501:USB_DEVICE/Target/usbd_conf.c ****   * @retval USBD status
 502:USB_DEVICE/Target/usbd_conf.c ****   */
 503:USB_DEVICE/Target/usbd_conf.c **** USBD_StatusTypeDef USBD_LL_ClearStallEP(USBD_HandleTypeDef *pdev, uint8_t ep_addr)
 504:USB_DEVICE/Target/usbd_conf.c **** {
 505:USB_DEVICE/Target/usbd_conf.c ****   HAL_StatusTypeDef hal_status = HAL_OK;
 506:USB_DEVICE/Target/usbd_conf.c ****   USBD_StatusTypeDef usb_status = USBD_OK;
 507:USB_DEVICE/Target/usbd_conf.c **** 
 508:USB_DEVICE/Target/usbd_conf.c ****   hal_status = HAL_PCD_EP_ClrStall(pdev->pData, ep_addr);
 509:USB_DEVICE/Target/usbd_conf.c **** 
 510:USB_DEVICE/Target/usbd_conf.c ****   usb_status =  USBD_Get_USB_Status(hal_status);
 511:USB_DEVICE/Target/usbd_conf.c **** 
 512:USB_DEVICE/Target/usbd_conf.c ****   return usb_status;
 513:USB_DEVICE/Target/usbd_conf.c **** }
 514:USB_DEVICE/Target/usbd_conf.c **** 
 515:USB_DEVICE/Target/usbd_conf.c **** /**
 516:USB_DEVICE/Target/usbd_conf.c ****   * @brief  Returns Stall condition.
ARM GAS  /tmp/ccwvGOOK.s 			page 24


 517:USB_DEVICE/Target/usbd_conf.c ****   * @param  pdev: Device handle
 518:USB_DEVICE/Target/usbd_conf.c ****   * @param  ep_addr: Endpoint number
 519:USB_DEVICE/Target/usbd_conf.c ****   * @retval Stall (1: Yes, 0: No)
 520:USB_DEVICE/Target/usbd_conf.c ****   */
 521:USB_DEVICE/Target/usbd_conf.c **** uint8_t USBD_LL_IsStallEP(USBD_HandleTypeDef *pdev, uint8_t ep_addr)
 522:USB_DEVICE/Target/usbd_conf.c **** {
 759              		.loc 1 522 1 view -0
 760              		.cfi_startproc
 761              		@ args = 0, pretend = 0, frame = 0
 762              		@ frame_needed = 0, uses_anonymous_args = 0
 763              		@ link register save eliminated.
 523:USB_DEVICE/Target/usbd_conf.c ****   PCD_HandleTypeDef *hpcd = (PCD_HandleTypeDef*) pdev->pData;
 764              		.loc 1 523 3 view .LVU162
 765              		.loc 1 523 22 is_stmt 0 view .LVU163
 766 0000 D0F8C832 		ldr	r3, [r0, #712]
 767              	.LVL62:
 524:USB_DEVICE/Target/usbd_conf.c **** 
 525:USB_DEVICE/Target/usbd_conf.c ****   if((ep_addr & 0x80) == 0x80)
 768              		.loc 1 525 3 is_stmt 1 view .LVU164
 769              		.loc 1 525 5 is_stmt 0 view .LVU165
 770 0004 11F0800F 		tst	r1, #128
 771 0008 08D1     		bne	.L56
 526:USB_DEVICE/Target/usbd_conf.c ****   {
 527:USB_DEVICE/Target/usbd_conf.c ****     return hpcd->IN_ep[ep_addr & 0x7F].is_stall;
 528:USB_DEVICE/Target/usbd_conf.c ****   }
 529:USB_DEVICE/Target/usbd_conf.c ****   else
 530:USB_DEVICE/Target/usbd_conf.c ****   {
 531:USB_DEVICE/Target/usbd_conf.c ****     return hpcd->OUT_ep[ep_addr & 0x7F].is_stall;
 772              		.loc 1 531 5 is_stmt 1 view .LVU166
 773              		.loc 1 531 33 is_stmt 0 view .LVU167
 774 000a 01F07F01 		and	r1, r1, #127
 775              	.LVL63:
 776              		.loc 1 531 40 view .LVU168
 777 000e 01EBC101 		add	r1, r1, r1, lsl #3
 778 0012 8A00     		lsls	r2, r1, #2
 779 0014 1344     		add	r3, r3, r2
 780              	.LVL64:
 781              		.loc 1 531 40 view .LVU169
 782 0016 93F87E02 		ldrb	r0, [r3, #638]	@ zero_extendqisi2
 783              	.LVL65:
 532:USB_DEVICE/Target/usbd_conf.c ****   }
 533:USB_DEVICE/Target/usbd_conf.c **** }
 784              		.loc 1 533 1 view .LVU170
 785 001a 7047     		bx	lr
 786              	.LVL66:
 787              	.L56:
 527:USB_DEVICE/Target/usbd_conf.c ****   }
 788              		.loc 1 527 5 is_stmt 1 view .LVU171
 527:USB_DEVICE/Target/usbd_conf.c ****   }
 789              		.loc 1 527 32 is_stmt 0 view .LVU172
 790 001c 01F07F01 		and	r1, r1, #127
 791              	.LVL67:
 527:USB_DEVICE/Target/usbd_conf.c ****   }
 792              		.loc 1 527 39 view .LVU173
 793 0020 01EBC101 		add	r1, r1, r1, lsl #3
 794 0024 8A00     		lsls	r2, r1, #2
 795 0026 1344     		add	r3, r3, r2
ARM GAS  /tmp/ccwvGOOK.s 			page 25


 796              	.LVL68:
 527:USB_DEVICE/Target/usbd_conf.c ****   }
 797              		.loc 1 527 39 view .LVU174
 798 0028 93F83E00 		ldrb	r0, [r3, #62]	@ zero_extendqisi2
 799              	.LVL69:
 527:USB_DEVICE/Target/usbd_conf.c ****   }
 800              		.loc 1 527 39 view .LVU175
 801 002c 7047     		bx	lr
 802              		.cfi_endproc
 803              	.LFE261:
 805              		.section	.text.USBD_LL_GetRxDataSize,"ax",%progbits
 806              		.align	1
 807              		.global	USBD_LL_GetRxDataSize
 808              		.syntax unified
 809              		.thumb
 810              		.thumb_func
 811              		.fpu fpv4-sp-d16
 813              	USBD_LL_GetRxDataSize:
 814              	.LVL70:
 815              	.LFB265:
 534:USB_DEVICE/Target/usbd_conf.c **** 
 535:USB_DEVICE/Target/usbd_conf.c **** /**
 536:USB_DEVICE/Target/usbd_conf.c ****   * @brief  Assigns a USB address to the device.
 537:USB_DEVICE/Target/usbd_conf.c ****   * @param  pdev: Device handle
 538:USB_DEVICE/Target/usbd_conf.c ****   * @param  dev_addr: Device address
 539:USB_DEVICE/Target/usbd_conf.c ****   * @retval USBD status
 540:USB_DEVICE/Target/usbd_conf.c ****   */
 541:USB_DEVICE/Target/usbd_conf.c **** USBD_StatusTypeDef USBD_LL_SetUSBAddress(USBD_HandleTypeDef *pdev, uint8_t dev_addr)
 542:USB_DEVICE/Target/usbd_conf.c **** {
 543:USB_DEVICE/Target/usbd_conf.c ****   HAL_StatusTypeDef hal_status = HAL_OK;
 544:USB_DEVICE/Target/usbd_conf.c ****   USBD_StatusTypeDef usb_status = USBD_OK;
 545:USB_DEVICE/Target/usbd_conf.c **** 
 546:USB_DEVICE/Target/usbd_conf.c ****   hal_status = HAL_PCD_SetAddress(pdev->pData, dev_addr);
 547:USB_DEVICE/Target/usbd_conf.c **** 
 548:USB_DEVICE/Target/usbd_conf.c ****   usb_status =  USBD_Get_USB_Status(hal_status);
 549:USB_DEVICE/Target/usbd_conf.c **** 
 550:USB_DEVICE/Target/usbd_conf.c ****   return usb_status;
 551:USB_DEVICE/Target/usbd_conf.c **** }
 552:USB_DEVICE/Target/usbd_conf.c **** 
 553:USB_DEVICE/Target/usbd_conf.c **** /**
 554:USB_DEVICE/Target/usbd_conf.c ****   * @brief  Transmits data over an endpoint.
 555:USB_DEVICE/Target/usbd_conf.c ****   * @param  pdev: Device handle
 556:USB_DEVICE/Target/usbd_conf.c ****   * @param  ep_addr: Endpoint number
 557:USB_DEVICE/Target/usbd_conf.c ****   * @param  pbuf: Pointer to data to be sent
 558:USB_DEVICE/Target/usbd_conf.c ****   * @param  size: Data size
 559:USB_DEVICE/Target/usbd_conf.c ****   * @retval USBD status
 560:USB_DEVICE/Target/usbd_conf.c ****   */
 561:USB_DEVICE/Target/usbd_conf.c **** USBD_StatusTypeDef USBD_LL_Transmit(USBD_HandleTypeDef *pdev, uint8_t ep_addr, uint8_t *pbuf, uint3
 562:USB_DEVICE/Target/usbd_conf.c **** {
 563:USB_DEVICE/Target/usbd_conf.c ****   HAL_StatusTypeDef hal_status = HAL_OK;
 564:USB_DEVICE/Target/usbd_conf.c ****   USBD_StatusTypeDef usb_status = USBD_OK;
 565:USB_DEVICE/Target/usbd_conf.c **** 
 566:USB_DEVICE/Target/usbd_conf.c ****   hal_status = HAL_PCD_EP_Transmit(pdev->pData, ep_addr, pbuf, size);
 567:USB_DEVICE/Target/usbd_conf.c **** 
 568:USB_DEVICE/Target/usbd_conf.c ****   usb_status =  USBD_Get_USB_Status(hal_status);
 569:USB_DEVICE/Target/usbd_conf.c **** 
 570:USB_DEVICE/Target/usbd_conf.c ****   return usb_status;
ARM GAS  /tmp/ccwvGOOK.s 			page 26


 571:USB_DEVICE/Target/usbd_conf.c **** }
 572:USB_DEVICE/Target/usbd_conf.c **** 
 573:USB_DEVICE/Target/usbd_conf.c **** /**
 574:USB_DEVICE/Target/usbd_conf.c ****   * @brief  Prepares an endpoint for reception.
 575:USB_DEVICE/Target/usbd_conf.c ****   * @param  pdev: Device handle
 576:USB_DEVICE/Target/usbd_conf.c ****   * @param  ep_addr: Endpoint number
 577:USB_DEVICE/Target/usbd_conf.c ****   * @param  pbuf: Pointer to data to be received
 578:USB_DEVICE/Target/usbd_conf.c ****   * @param  size: Data size
 579:USB_DEVICE/Target/usbd_conf.c ****   * @retval USBD status
 580:USB_DEVICE/Target/usbd_conf.c ****   */
 581:USB_DEVICE/Target/usbd_conf.c **** USBD_StatusTypeDef USBD_LL_PrepareReceive(USBD_HandleTypeDef *pdev, uint8_t ep_addr, uint8_t *pbuf,
 582:USB_DEVICE/Target/usbd_conf.c **** {
 583:USB_DEVICE/Target/usbd_conf.c ****   HAL_StatusTypeDef hal_status = HAL_OK;
 584:USB_DEVICE/Target/usbd_conf.c ****   USBD_StatusTypeDef usb_status = USBD_OK;
 585:USB_DEVICE/Target/usbd_conf.c **** 
 586:USB_DEVICE/Target/usbd_conf.c ****   hal_status = HAL_PCD_EP_Receive(pdev->pData, ep_addr, pbuf, size);
 587:USB_DEVICE/Target/usbd_conf.c **** 
 588:USB_DEVICE/Target/usbd_conf.c ****   usb_status =  USBD_Get_USB_Status(hal_status);
 589:USB_DEVICE/Target/usbd_conf.c **** 
 590:USB_DEVICE/Target/usbd_conf.c ****   return usb_status;
 591:USB_DEVICE/Target/usbd_conf.c **** }
 592:USB_DEVICE/Target/usbd_conf.c **** 
 593:USB_DEVICE/Target/usbd_conf.c **** /**
 594:USB_DEVICE/Target/usbd_conf.c ****   * @brief  Returns the last transferred packet size.
 595:USB_DEVICE/Target/usbd_conf.c ****   * @param  pdev: Device handle
 596:USB_DEVICE/Target/usbd_conf.c ****   * @param  ep_addr: Endpoint number
 597:USB_DEVICE/Target/usbd_conf.c ****   * @retval Received Data Size
 598:USB_DEVICE/Target/usbd_conf.c ****   */
 599:USB_DEVICE/Target/usbd_conf.c **** uint32_t USBD_LL_GetRxDataSize(USBD_HandleTypeDef *pdev, uint8_t ep_addr)
 600:USB_DEVICE/Target/usbd_conf.c **** {
 816              		.loc 1 600 1 is_stmt 1 view -0
 817              		.cfi_startproc
 818              		@ args = 0, pretend = 0, frame = 0
 819              		@ frame_needed = 0, uses_anonymous_args = 0
 820              		.loc 1 600 1 is_stmt 0 view .LVU177
 821 0000 08B5     		push	{r3, lr}
 822              	.LCFI17:
 823              		.cfi_def_cfa_offset 8
 824              		.cfi_offset 3, -8
 825              		.cfi_offset 14, -4
 601:USB_DEVICE/Target/usbd_conf.c ****   return HAL_PCD_EP_GetRxCount((PCD_HandleTypeDef*) pdev->pData, ep_addr);
 826              		.loc 1 601 3 is_stmt 1 view .LVU178
 827              		.loc 1 601 10 is_stmt 0 view .LVU179
 828 0002 D0F8C802 		ldr	r0, [r0, #712]
 829              	.LVL71:
 830              		.loc 1 601 10 view .LVU180
 831 0006 FFF7FEFF 		bl	HAL_PCD_EP_GetRxCount
 832              	.LVL72:
 602:USB_DEVICE/Target/usbd_conf.c **** }
 833              		.loc 1 602 1 view .LVU181
 834 000a 08BD     		pop	{r3, pc}
 835              		.cfi_endproc
 836              	.LFE265:
 838              		.section	.text.USBD_static_malloc,"ax",%progbits
 839              		.align	1
 840              		.global	USBD_static_malloc
 841              		.syntax unified
ARM GAS  /tmp/ccwvGOOK.s 			page 27


 842              		.thumb
 843              		.thumb_func
 844              		.fpu fpv4-sp-d16
 846              	USBD_static_malloc:
 847              	.LVL73:
 848              	.LFB266:
 603:USB_DEVICE/Target/usbd_conf.c **** 
 604:USB_DEVICE/Target/usbd_conf.c **** #ifdef USBD_HS_TESTMODE_ENABLE
 605:USB_DEVICE/Target/usbd_conf.c **** /**
 606:USB_DEVICE/Target/usbd_conf.c ****   * @brief  Set High speed Test mode.
 607:USB_DEVICE/Target/usbd_conf.c ****   * @param  pdev: Device handle
 608:USB_DEVICE/Target/usbd_conf.c ****   * @param  testmode: test mode
 609:USB_DEVICE/Target/usbd_conf.c ****   * @retval USBD Status
 610:USB_DEVICE/Target/usbd_conf.c ****   */
 611:USB_DEVICE/Target/usbd_conf.c **** USBD_StatusTypeDef USBD_LL_SetTestMode(USBD_HandleTypeDef *pdev, uint8_t testmode)
 612:USB_DEVICE/Target/usbd_conf.c **** {
 613:USB_DEVICE/Target/usbd_conf.c ****   UNUSED(pdev);
 614:USB_DEVICE/Target/usbd_conf.c ****   UNUSED(testmode);
 615:USB_DEVICE/Target/usbd_conf.c **** 
 616:USB_DEVICE/Target/usbd_conf.c ****   return USBD_OK;
 617:USB_DEVICE/Target/usbd_conf.c **** }
 618:USB_DEVICE/Target/usbd_conf.c **** #endif /* USBD_HS_TESTMODE_ENABLE */
 619:USB_DEVICE/Target/usbd_conf.c **** 
 620:USB_DEVICE/Target/usbd_conf.c **** /**
 621:USB_DEVICE/Target/usbd_conf.c ****   * @brief  Static single allocation.
 622:USB_DEVICE/Target/usbd_conf.c ****   * @param  size: Size of allocated memory
 623:USB_DEVICE/Target/usbd_conf.c ****   * @retval None
 624:USB_DEVICE/Target/usbd_conf.c ****   */
 625:USB_DEVICE/Target/usbd_conf.c **** void *USBD_static_malloc(uint32_t size)
 626:USB_DEVICE/Target/usbd_conf.c **** {
 849              		.loc 1 626 1 is_stmt 1 view -0
 850              		.cfi_startproc
 851              		@ args = 0, pretend = 0, frame = 0
 852              		@ frame_needed = 0, uses_anonymous_args = 0
 853              		@ link register save eliminated.
 627:USB_DEVICE/Target/usbd_conf.c ****   static uint32_t mem[(sizeof(USBD_CDC_HandleTypeDef)/4)+1];/* On 32-bit boundary */
 854              		.loc 1 627 3 view .LVU183
 628:USB_DEVICE/Target/usbd_conf.c ****   return mem;
 855              		.loc 1 628 3 view .LVU184
 629:USB_DEVICE/Target/usbd_conf.c **** }
 856              		.loc 1 629 1 is_stmt 0 view .LVU185
 857 0000 0048     		ldr	r0, .L60
 858              	.LVL74:
 859              		.loc 1 629 1 view .LVU186
 860 0002 7047     		bx	lr
 861              	.L61:
 862              		.align	2
 863              	.L60:
 864 0004 00000000 		.word	.LANCHOR0
 865              		.cfi_endproc
 866              	.LFE266:
 868              		.section	.text.USBD_static_free,"ax",%progbits
 869              		.align	1
 870              		.global	USBD_static_free
 871              		.syntax unified
 872              		.thumb
 873              		.thumb_func
ARM GAS  /tmp/ccwvGOOK.s 			page 28


 874              		.fpu fpv4-sp-d16
 876              	USBD_static_free:
 877              	.LVL75:
 878              	.LFB267:
 630:USB_DEVICE/Target/usbd_conf.c **** 
 631:USB_DEVICE/Target/usbd_conf.c **** /**
 632:USB_DEVICE/Target/usbd_conf.c ****   * @brief  Dummy memory free
 633:USB_DEVICE/Target/usbd_conf.c ****   * @param  p: Pointer to allocated  memory address
 634:USB_DEVICE/Target/usbd_conf.c ****   * @retval None
 635:USB_DEVICE/Target/usbd_conf.c ****   */
 636:USB_DEVICE/Target/usbd_conf.c **** void USBD_static_free(void *p)
 637:USB_DEVICE/Target/usbd_conf.c **** {
 879              		.loc 1 637 1 is_stmt 1 view -0
 880              		.cfi_startproc
 881              		@ args = 0, pretend = 0, frame = 0
 882              		@ frame_needed = 0, uses_anonymous_args = 0
 883              		@ link register save eliminated.
 638:USB_DEVICE/Target/usbd_conf.c **** 
 639:USB_DEVICE/Target/usbd_conf.c **** }
 884              		.loc 1 639 1 view .LVU188
 885 0000 7047     		bx	lr
 886              		.cfi_endproc
 887              	.LFE267:
 889              		.section	.text.USBD_LL_Delay,"ax",%progbits
 890              		.align	1
 891              		.global	USBD_LL_Delay
 892              		.syntax unified
 893              		.thumb
 894              		.thumb_func
 895              		.fpu fpv4-sp-d16
 897              	USBD_LL_Delay:
 898              	.LVL76:
 899              	.LFB268:
 640:USB_DEVICE/Target/usbd_conf.c **** 
 641:USB_DEVICE/Target/usbd_conf.c **** /**
 642:USB_DEVICE/Target/usbd_conf.c ****   * @brief  Delays routine for the USB Device Library.
 643:USB_DEVICE/Target/usbd_conf.c ****   * @param  Delay: Delay in ms
 644:USB_DEVICE/Target/usbd_conf.c ****   * @retval None
 645:USB_DEVICE/Target/usbd_conf.c ****   */
 646:USB_DEVICE/Target/usbd_conf.c **** void USBD_LL_Delay(uint32_t Delay)
 647:USB_DEVICE/Target/usbd_conf.c **** {
 900              		.loc 1 647 1 view -0
 901              		.cfi_startproc
 902              		@ args = 0, pretend = 0, frame = 0
 903              		@ frame_needed = 0, uses_anonymous_args = 0
 904              		.loc 1 647 1 is_stmt 0 view .LVU190
 905 0000 08B5     		push	{r3, lr}
 906              	.LCFI18:
 907              		.cfi_def_cfa_offset 8
 908              		.cfi_offset 3, -8
 909              		.cfi_offset 14, -4
 648:USB_DEVICE/Target/usbd_conf.c ****   HAL_Delay(Delay);
 910              		.loc 1 648 3 is_stmt 1 view .LVU191
 911 0002 FFF7FEFF 		bl	HAL_Delay
 912              	.LVL77:
 649:USB_DEVICE/Target/usbd_conf.c **** }
 913              		.loc 1 649 1 is_stmt 0 view .LVU192
ARM GAS  /tmp/ccwvGOOK.s 			page 29


 914 0006 08BD     		pop	{r3, pc}
 915              		.cfi_endproc
 916              	.LFE268:
 918              		.section	.text.USBD_Get_USB_Status,"ax",%progbits
 919              		.align	1
 920              		.global	USBD_Get_USB_Status
 921              		.syntax unified
 922              		.thumb
 923              		.thumb_func
 924              		.fpu fpv4-sp-d16
 926              	USBD_Get_USB_Status:
 927              	.LVL78:
 928              	.LFB269:
 650:USB_DEVICE/Target/usbd_conf.c **** 
 651:USB_DEVICE/Target/usbd_conf.c **** /**
 652:USB_DEVICE/Target/usbd_conf.c ****   * @brief  Returns the USB status depending on the HAL status:
 653:USB_DEVICE/Target/usbd_conf.c ****   * @param  hal_status: HAL status
 654:USB_DEVICE/Target/usbd_conf.c ****   * @retval USB status
 655:USB_DEVICE/Target/usbd_conf.c ****   */
 656:USB_DEVICE/Target/usbd_conf.c **** USBD_StatusTypeDef USBD_Get_USB_Status(HAL_StatusTypeDef hal_status)
 657:USB_DEVICE/Target/usbd_conf.c **** {
 929              		.loc 1 657 1 is_stmt 1 view -0
 930              		.cfi_startproc
 931              		@ args = 0, pretend = 0, frame = 0
 932              		@ frame_needed = 0, uses_anonymous_args = 0
 933              		@ link register save eliminated.
 658:USB_DEVICE/Target/usbd_conf.c ****   USBD_StatusTypeDef usb_status = USBD_OK;
 934              		.loc 1 658 3 view .LVU194
 659:USB_DEVICE/Target/usbd_conf.c **** 
 660:USB_DEVICE/Target/usbd_conf.c ****   switch (hal_status)
 935              		.loc 1 660 3 view .LVU195
 936 0000 0328     		cmp	r0, #3
 937 0002 05D8     		bhi	.L71
 938 0004 DFE800F0 		tbb	[pc, r0]
 939              	.L68:
 940 0008 05       		.byte	(.L66-.L68)/2
 941 0009 04       		.byte	(.L71-.L68)/2
 942 000a 02       		.byte	(.L69-.L68)/2
 943 000b 05       		.byte	(.L66-.L68)/2
 944              		.p2align 1
 945              	.L69:
 661:USB_DEVICE/Target/usbd_conf.c ****   {
 662:USB_DEVICE/Target/usbd_conf.c ****     case HAL_OK :
 663:USB_DEVICE/Target/usbd_conf.c ****       usb_status = USBD_OK;
 664:USB_DEVICE/Target/usbd_conf.c ****     break;
 665:USB_DEVICE/Target/usbd_conf.c ****     case HAL_ERROR :
 666:USB_DEVICE/Target/usbd_conf.c ****       usb_status = USBD_FAIL;
 667:USB_DEVICE/Target/usbd_conf.c ****     break;
 668:USB_DEVICE/Target/usbd_conf.c ****     case HAL_BUSY :
 669:USB_DEVICE/Target/usbd_conf.c ****       usb_status = USBD_BUSY;
 946              		.loc 1 669 7 view .LVU196
 947              	.LVL79:
 670:USB_DEVICE/Target/usbd_conf.c ****     break;
 948              		.loc 1 670 5 view .LVU197
 669:USB_DEVICE/Target/usbd_conf.c ****     break;
 949              		.loc 1 669 18 is_stmt 0 view .LVU198
 950 000c 0120     		movs	r0, #1
ARM GAS  /tmp/ccwvGOOK.s 			page 30


 951              	.LVL80:
 952              		.loc 1 670 5 view .LVU199
 953 000e 7047     		bx	lr
 954              	.LVL81:
 955              	.L71:
 666:USB_DEVICE/Target/usbd_conf.c ****     break;
 956              		.loc 1 666 18 view .LVU200
 957 0010 0320     		movs	r0, #3
 958              	.LVL82:
 959              	.L66:
 671:USB_DEVICE/Target/usbd_conf.c ****     case HAL_TIMEOUT :
 672:USB_DEVICE/Target/usbd_conf.c ****       usb_status = USBD_FAIL;
 673:USB_DEVICE/Target/usbd_conf.c ****     break;
 674:USB_DEVICE/Target/usbd_conf.c ****     default :
 675:USB_DEVICE/Target/usbd_conf.c ****       usb_status = USBD_FAIL;
 676:USB_DEVICE/Target/usbd_conf.c ****     break;
 677:USB_DEVICE/Target/usbd_conf.c ****   }
 678:USB_DEVICE/Target/usbd_conf.c ****   return usb_status;
 960              		.loc 1 678 3 is_stmt 1 view .LVU201
 679:USB_DEVICE/Target/usbd_conf.c **** }
 961              		.loc 1 679 1 is_stmt 0 view .LVU202
 962 0012 7047     		bx	lr
 963              		.cfi_endproc
 964              	.LFE269:
 966              		.section	.text.USBD_LL_DeInit,"ax",%progbits
 967              		.align	1
 968              		.global	USBD_LL_DeInit
 969              		.syntax unified
 970              		.thumb
 971              		.thumb_func
 972              		.fpu fpv4-sp-d16
 974              	USBD_LL_DeInit:
 975              	.LVL83:
 976              	.LFB253:
 378:USB_DEVICE/Target/usbd_conf.c ****   HAL_StatusTypeDef hal_status = HAL_OK;
 977              		.loc 1 378 1 is_stmt 1 view -0
 978              		.cfi_startproc
 979              		@ args = 0, pretend = 0, frame = 0
 980              		@ frame_needed = 0, uses_anonymous_args = 0
 378:USB_DEVICE/Target/usbd_conf.c ****   HAL_StatusTypeDef hal_status = HAL_OK;
 981              		.loc 1 378 1 is_stmt 0 view .LVU204
 982 0000 08B5     		push	{r3, lr}
 983              	.LCFI19:
 984              		.cfi_def_cfa_offset 8
 985              		.cfi_offset 3, -8
 986              		.cfi_offset 14, -4
 379:USB_DEVICE/Target/usbd_conf.c ****   USBD_StatusTypeDef usb_status = USBD_OK;
 987              		.loc 1 379 3 is_stmt 1 view .LVU205
 988              	.LVL84:
 380:USB_DEVICE/Target/usbd_conf.c **** 
 989              		.loc 1 380 3 view .LVU206
 382:USB_DEVICE/Target/usbd_conf.c **** 
 990              		.loc 1 382 3 view .LVU207
 382:USB_DEVICE/Target/usbd_conf.c **** 
 991              		.loc 1 382 16 is_stmt 0 view .LVU208
 992 0002 D0F8C802 		ldr	r0, [r0, #712]
 993              	.LVL85:
ARM GAS  /tmp/ccwvGOOK.s 			page 31


 382:USB_DEVICE/Target/usbd_conf.c **** 
 994              		.loc 1 382 16 view .LVU209
 995 0006 FFF7FEFF 		bl	HAL_PCD_DeInit
 996              	.LVL86:
 384:USB_DEVICE/Target/usbd_conf.c **** 
 997              		.loc 1 384 3 is_stmt 1 view .LVU210
 384:USB_DEVICE/Target/usbd_conf.c **** 
 998              		.loc 1 384 17 is_stmt 0 view .LVU211
 999 000a FFF7FEFF 		bl	USBD_Get_USB_Status
 1000              	.LVL87:
 386:USB_DEVICE/Target/usbd_conf.c **** }
 1001              		.loc 1 386 3 is_stmt 1 view .LVU212
 387:USB_DEVICE/Target/usbd_conf.c **** 
 1002              		.loc 1 387 1 is_stmt 0 view .LVU213
 1003 000e 08BD     		pop	{r3, pc}
 1004              		.cfi_endproc
 1005              	.LFE253:
 1007              		.section	.text.USBD_LL_Start,"ax",%progbits
 1008              		.align	1
 1009              		.global	USBD_LL_Start
 1010              		.syntax unified
 1011              		.thumb
 1012              		.thumb_func
 1013              		.fpu fpv4-sp-d16
 1015              	USBD_LL_Start:
 1016              	.LVL88:
 1017              	.LFB254:
 395:USB_DEVICE/Target/usbd_conf.c ****   HAL_StatusTypeDef hal_status = HAL_OK;
 1018              		.loc 1 395 1 is_stmt 1 view -0
 1019              		.cfi_startproc
 1020              		@ args = 0, pretend = 0, frame = 0
 1021              		@ frame_needed = 0, uses_anonymous_args = 0
 395:USB_DEVICE/Target/usbd_conf.c ****   HAL_StatusTypeDef hal_status = HAL_OK;
 1022              		.loc 1 395 1 is_stmt 0 view .LVU215
 1023 0000 08B5     		push	{r3, lr}
 1024              	.LCFI20:
 1025              		.cfi_def_cfa_offset 8
 1026              		.cfi_offset 3, -8
 1027              		.cfi_offset 14, -4
 396:USB_DEVICE/Target/usbd_conf.c ****   USBD_StatusTypeDef usb_status = USBD_OK;
 1028              		.loc 1 396 3 is_stmt 1 view .LVU216
 1029              	.LVL89:
 397:USB_DEVICE/Target/usbd_conf.c **** 
 1030              		.loc 1 397 3 view .LVU217
 399:USB_DEVICE/Target/usbd_conf.c **** 
 1031              		.loc 1 399 3 view .LVU218
 399:USB_DEVICE/Target/usbd_conf.c **** 
 1032              		.loc 1 399 16 is_stmt 0 view .LVU219
 1033 0002 D0F8C802 		ldr	r0, [r0, #712]
 1034              	.LVL90:
 399:USB_DEVICE/Target/usbd_conf.c **** 
 1035              		.loc 1 399 16 view .LVU220
 1036 0006 FFF7FEFF 		bl	HAL_PCD_Start
 1037              	.LVL91:
 401:USB_DEVICE/Target/usbd_conf.c **** 
 1038              		.loc 1 401 3 is_stmt 1 view .LVU221
 401:USB_DEVICE/Target/usbd_conf.c **** 
ARM GAS  /tmp/ccwvGOOK.s 			page 32


 1039              		.loc 1 401 17 is_stmt 0 view .LVU222
 1040 000a FFF7FEFF 		bl	USBD_Get_USB_Status
 1041              	.LVL92:
 403:USB_DEVICE/Target/usbd_conf.c **** }
 1042              		.loc 1 403 3 is_stmt 1 view .LVU223
 404:USB_DEVICE/Target/usbd_conf.c **** 
 1043              		.loc 1 404 1 is_stmt 0 view .LVU224
 1044 000e 08BD     		pop	{r3, pc}
 1045              		.cfi_endproc
 1046              	.LFE254:
 1048              		.section	.text.USBD_LL_Stop,"ax",%progbits
 1049              		.align	1
 1050              		.global	USBD_LL_Stop
 1051              		.syntax unified
 1052              		.thumb
 1053              		.thumb_func
 1054              		.fpu fpv4-sp-d16
 1056              	USBD_LL_Stop:
 1057              	.LVL93:
 1058              	.LFB255:
 412:USB_DEVICE/Target/usbd_conf.c ****   HAL_StatusTypeDef hal_status = HAL_OK;
 1059              		.loc 1 412 1 is_stmt 1 view -0
 1060              		.cfi_startproc
 1061              		@ args = 0, pretend = 0, frame = 0
 1062              		@ frame_needed = 0, uses_anonymous_args = 0
 412:USB_DEVICE/Target/usbd_conf.c ****   HAL_StatusTypeDef hal_status = HAL_OK;
 1063              		.loc 1 412 1 is_stmt 0 view .LVU226
 1064 0000 08B5     		push	{r3, lr}
 1065              	.LCFI21:
 1066              		.cfi_def_cfa_offset 8
 1067              		.cfi_offset 3, -8
 1068              		.cfi_offset 14, -4
 413:USB_DEVICE/Target/usbd_conf.c ****   USBD_StatusTypeDef usb_status = USBD_OK;
 1069              		.loc 1 413 3 is_stmt 1 view .LVU227
 1070              	.LVL94:
 414:USB_DEVICE/Target/usbd_conf.c **** 
 1071              		.loc 1 414 3 view .LVU228
 416:USB_DEVICE/Target/usbd_conf.c **** 
 1072              		.loc 1 416 3 view .LVU229
 416:USB_DEVICE/Target/usbd_conf.c **** 
 1073              		.loc 1 416 16 is_stmt 0 view .LVU230
 1074 0002 D0F8C802 		ldr	r0, [r0, #712]
 1075              	.LVL95:
 416:USB_DEVICE/Target/usbd_conf.c **** 
 1076              		.loc 1 416 16 view .LVU231
 1077 0006 FFF7FEFF 		bl	HAL_PCD_Stop
 1078              	.LVL96:
 418:USB_DEVICE/Target/usbd_conf.c **** 
 1079              		.loc 1 418 3 is_stmt 1 view .LVU232
 418:USB_DEVICE/Target/usbd_conf.c **** 
 1080              		.loc 1 418 17 is_stmt 0 view .LVU233
 1081 000a FFF7FEFF 		bl	USBD_Get_USB_Status
 1082              	.LVL97:
 420:USB_DEVICE/Target/usbd_conf.c **** }
 1083              		.loc 1 420 3 is_stmt 1 view .LVU234
 421:USB_DEVICE/Target/usbd_conf.c **** 
 1084              		.loc 1 421 1 is_stmt 0 view .LVU235
ARM GAS  /tmp/ccwvGOOK.s 			page 33


 1085 000e 08BD     		pop	{r3, pc}
 1086              		.cfi_endproc
 1087              	.LFE255:
 1089              		.section	.text.USBD_LL_OpenEP,"ax",%progbits
 1090              		.align	1
 1091              		.global	USBD_LL_OpenEP
 1092              		.syntax unified
 1093              		.thumb
 1094              		.thumb_func
 1095              		.fpu fpv4-sp-d16
 1097              	USBD_LL_OpenEP:
 1098              	.LVL98:
 1099              	.LFB256:
 432:USB_DEVICE/Target/usbd_conf.c ****   HAL_StatusTypeDef hal_status = HAL_OK;
 1100              		.loc 1 432 1 is_stmt 1 view -0
 1101              		.cfi_startproc
 1102              		@ args = 0, pretend = 0, frame = 0
 1103              		@ frame_needed = 0, uses_anonymous_args = 0
 432:USB_DEVICE/Target/usbd_conf.c ****   HAL_StatusTypeDef hal_status = HAL_OK;
 1104              		.loc 1 432 1 is_stmt 0 view .LVU237
 1105 0000 10B5     		push	{r4, lr}
 1106              	.LCFI22:
 1107              		.cfi_def_cfa_offset 8
 1108              		.cfi_offset 4, -8
 1109              		.cfi_offset 14, -4
 1110 0002 1C46     		mov	r4, r3
 433:USB_DEVICE/Target/usbd_conf.c ****   USBD_StatusTypeDef usb_status = USBD_OK;
 1111              		.loc 1 433 3 is_stmt 1 view .LVU238
 1112              	.LVL99:
 434:USB_DEVICE/Target/usbd_conf.c **** 
 1113              		.loc 1 434 3 view .LVU239
 436:USB_DEVICE/Target/usbd_conf.c **** 
 1114              		.loc 1 436 3 view .LVU240
 436:USB_DEVICE/Target/usbd_conf.c **** 
 1115              		.loc 1 436 16 is_stmt 0 view .LVU241
 1116 0004 1346     		mov	r3, r2
 1117              	.LVL100:
 436:USB_DEVICE/Target/usbd_conf.c **** 
 1118              		.loc 1 436 16 view .LVU242
 1119 0006 2246     		mov	r2, r4
 1120              	.LVL101:
 436:USB_DEVICE/Target/usbd_conf.c **** 
 1121              		.loc 1 436 16 view .LVU243
 1122 0008 D0F8C802 		ldr	r0, [r0, #712]
 1123              	.LVL102:
 436:USB_DEVICE/Target/usbd_conf.c **** 
 1124              		.loc 1 436 16 view .LVU244
 1125 000c FFF7FEFF 		bl	HAL_PCD_EP_Open
 1126              	.LVL103:
 438:USB_DEVICE/Target/usbd_conf.c **** 
 1127              		.loc 1 438 3 is_stmt 1 view .LVU245
 438:USB_DEVICE/Target/usbd_conf.c **** 
 1128              		.loc 1 438 17 is_stmt 0 view .LVU246
 1129 0010 FFF7FEFF 		bl	USBD_Get_USB_Status
 1130              	.LVL104:
 440:USB_DEVICE/Target/usbd_conf.c **** }
 1131              		.loc 1 440 3 is_stmt 1 view .LVU247
ARM GAS  /tmp/ccwvGOOK.s 			page 34


 441:USB_DEVICE/Target/usbd_conf.c **** 
 1132              		.loc 1 441 1 is_stmt 0 view .LVU248
 1133 0014 10BD     		pop	{r4, pc}
 1134              		.cfi_endproc
 1135              	.LFE256:
 1137              		.section	.text.USBD_LL_CloseEP,"ax",%progbits
 1138              		.align	1
 1139              		.global	USBD_LL_CloseEP
 1140              		.syntax unified
 1141              		.thumb
 1142              		.thumb_func
 1143              		.fpu fpv4-sp-d16
 1145              	USBD_LL_CloseEP:
 1146              	.LVL105:
 1147              	.LFB257:
 450:USB_DEVICE/Target/usbd_conf.c ****   HAL_StatusTypeDef hal_status = HAL_OK;
 1148              		.loc 1 450 1 is_stmt 1 view -0
 1149              		.cfi_startproc
 1150              		@ args = 0, pretend = 0, frame = 0
 1151              		@ frame_needed = 0, uses_anonymous_args = 0
 450:USB_DEVICE/Target/usbd_conf.c ****   HAL_StatusTypeDef hal_status = HAL_OK;
 1152              		.loc 1 450 1 is_stmt 0 view .LVU250
 1153 0000 08B5     		push	{r3, lr}
 1154              	.LCFI23:
 1155              		.cfi_def_cfa_offset 8
 1156              		.cfi_offset 3, -8
 1157              		.cfi_offset 14, -4
 451:USB_DEVICE/Target/usbd_conf.c ****   USBD_StatusTypeDef usb_status = USBD_OK;
 1158              		.loc 1 451 3 is_stmt 1 view .LVU251
 1159              	.LVL106:
 452:USB_DEVICE/Target/usbd_conf.c **** 
 1160              		.loc 1 452 3 view .LVU252
 454:USB_DEVICE/Target/usbd_conf.c **** 
 1161              		.loc 1 454 3 view .LVU253
 454:USB_DEVICE/Target/usbd_conf.c **** 
 1162              		.loc 1 454 16 is_stmt 0 view .LVU254
 1163 0002 D0F8C802 		ldr	r0, [r0, #712]
 1164              	.LVL107:
 454:USB_DEVICE/Target/usbd_conf.c **** 
 1165              		.loc 1 454 16 view .LVU255
 1166 0006 FFF7FEFF 		bl	HAL_PCD_EP_Close
 1167              	.LVL108:
 456:USB_DEVICE/Target/usbd_conf.c **** 
 1168              		.loc 1 456 3 is_stmt 1 view .LVU256
 456:USB_DEVICE/Target/usbd_conf.c **** 
 1169              		.loc 1 456 17 is_stmt 0 view .LVU257
 1170 000a FFF7FEFF 		bl	USBD_Get_USB_Status
 1171              	.LVL109:
 458:USB_DEVICE/Target/usbd_conf.c **** }
 1172              		.loc 1 458 3 is_stmt 1 view .LVU258
 459:USB_DEVICE/Target/usbd_conf.c **** 
 1173              		.loc 1 459 1 is_stmt 0 view .LVU259
 1174 000e 08BD     		pop	{r3, pc}
 1175              		.cfi_endproc
 1176              	.LFE257:
 1178              		.section	.text.USBD_LL_FlushEP,"ax",%progbits
 1179              		.align	1
ARM GAS  /tmp/ccwvGOOK.s 			page 35


 1180              		.global	USBD_LL_FlushEP
 1181              		.syntax unified
 1182              		.thumb
 1183              		.thumb_func
 1184              		.fpu fpv4-sp-d16
 1186              	USBD_LL_FlushEP:
 1187              	.LVL110:
 1188              	.LFB258:
 468:USB_DEVICE/Target/usbd_conf.c ****   HAL_StatusTypeDef hal_status = HAL_OK;
 1189              		.loc 1 468 1 is_stmt 1 view -0
 1190              		.cfi_startproc
 1191              		@ args = 0, pretend = 0, frame = 0
 1192              		@ frame_needed = 0, uses_anonymous_args = 0
 468:USB_DEVICE/Target/usbd_conf.c ****   HAL_StatusTypeDef hal_status = HAL_OK;
 1193              		.loc 1 468 1 is_stmt 0 view .LVU261
 1194 0000 08B5     		push	{r3, lr}
 1195              	.LCFI24:
 1196              		.cfi_def_cfa_offset 8
 1197              		.cfi_offset 3, -8
 1198              		.cfi_offset 14, -4
 469:USB_DEVICE/Target/usbd_conf.c ****   USBD_StatusTypeDef usb_status = USBD_OK;
 1199              		.loc 1 469 3 is_stmt 1 view .LVU262
 1200              	.LVL111:
 470:USB_DEVICE/Target/usbd_conf.c **** 
 1201              		.loc 1 470 3 view .LVU263
 472:USB_DEVICE/Target/usbd_conf.c **** 
 1202              		.loc 1 472 3 view .LVU264
 472:USB_DEVICE/Target/usbd_conf.c **** 
 1203              		.loc 1 472 16 is_stmt 0 view .LVU265
 1204 0002 D0F8C802 		ldr	r0, [r0, #712]
 1205              	.LVL112:
 472:USB_DEVICE/Target/usbd_conf.c **** 
 1206              		.loc 1 472 16 view .LVU266
 1207 0006 FFF7FEFF 		bl	HAL_PCD_EP_Flush
 1208              	.LVL113:
 474:USB_DEVICE/Target/usbd_conf.c **** 
 1209              		.loc 1 474 3 is_stmt 1 view .LVU267
 474:USB_DEVICE/Target/usbd_conf.c **** 
 1210              		.loc 1 474 17 is_stmt 0 view .LVU268
 1211 000a FFF7FEFF 		bl	USBD_Get_USB_Status
 1212              	.LVL114:
 476:USB_DEVICE/Target/usbd_conf.c **** }
 1213              		.loc 1 476 3 is_stmt 1 view .LVU269
 477:USB_DEVICE/Target/usbd_conf.c **** 
 1214              		.loc 1 477 1 is_stmt 0 view .LVU270
 1215 000e 08BD     		pop	{r3, pc}
 1216              		.cfi_endproc
 1217              	.LFE258:
 1219              		.section	.text.USBD_LL_StallEP,"ax",%progbits
 1220              		.align	1
 1221              		.global	USBD_LL_StallEP
 1222              		.syntax unified
 1223              		.thumb
 1224              		.thumb_func
 1225              		.fpu fpv4-sp-d16
 1227              	USBD_LL_StallEP:
 1228              	.LVL115:
ARM GAS  /tmp/ccwvGOOK.s 			page 36


 1229              	.LFB259:
 486:USB_DEVICE/Target/usbd_conf.c ****   HAL_StatusTypeDef hal_status = HAL_OK;
 1230              		.loc 1 486 1 is_stmt 1 view -0
 1231              		.cfi_startproc
 1232              		@ args = 0, pretend = 0, frame = 0
 1233              		@ frame_needed = 0, uses_anonymous_args = 0
 486:USB_DEVICE/Target/usbd_conf.c ****   HAL_StatusTypeDef hal_status = HAL_OK;
 1234              		.loc 1 486 1 is_stmt 0 view .LVU272
 1235 0000 08B5     		push	{r3, lr}
 1236              	.LCFI25:
 1237              		.cfi_def_cfa_offset 8
 1238              		.cfi_offset 3, -8
 1239              		.cfi_offset 14, -4
 487:USB_DEVICE/Target/usbd_conf.c ****   USBD_StatusTypeDef usb_status = USBD_OK;
 1240              		.loc 1 487 3 is_stmt 1 view .LVU273
 1241              	.LVL116:
 488:USB_DEVICE/Target/usbd_conf.c **** 
 1242              		.loc 1 488 3 view .LVU274
 490:USB_DEVICE/Target/usbd_conf.c **** 
 1243              		.loc 1 490 3 view .LVU275
 490:USB_DEVICE/Target/usbd_conf.c **** 
 1244              		.loc 1 490 16 is_stmt 0 view .LVU276
 1245 0002 D0F8C802 		ldr	r0, [r0, #712]
 1246              	.LVL117:
 490:USB_DEVICE/Target/usbd_conf.c **** 
 1247              		.loc 1 490 16 view .LVU277
 1248 0006 FFF7FEFF 		bl	HAL_PCD_EP_SetStall
 1249              	.LVL118:
 492:USB_DEVICE/Target/usbd_conf.c **** 
 1250              		.loc 1 492 3 is_stmt 1 view .LVU278
 492:USB_DEVICE/Target/usbd_conf.c **** 
 1251              		.loc 1 492 17 is_stmt 0 view .LVU279
 1252 000a FFF7FEFF 		bl	USBD_Get_USB_Status
 1253              	.LVL119:
 494:USB_DEVICE/Target/usbd_conf.c **** }
 1254              		.loc 1 494 3 is_stmt 1 view .LVU280
 495:USB_DEVICE/Target/usbd_conf.c **** 
 1255              		.loc 1 495 1 is_stmt 0 view .LVU281
 1256 000e 08BD     		pop	{r3, pc}
 1257              		.cfi_endproc
 1258              	.LFE259:
 1260              		.section	.text.USBD_LL_ClearStallEP,"ax",%progbits
 1261              		.align	1
 1262              		.global	USBD_LL_ClearStallEP
 1263              		.syntax unified
 1264              		.thumb
 1265              		.thumb_func
 1266              		.fpu fpv4-sp-d16
 1268              	USBD_LL_ClearStallEP:
 1269              	.LVL120:
 1270              	.LFB260:
 504:USB_DEVICE/Target/usbd_conf.c ****   HAL_StatusTypeDef hal_status = HAL_OK;
 1271              		.loc 1 504 1 is_stmt 1 view -0
 1272              		.cfi_startproc
 1273              		@ args = 0, pretend = 0, frame = 0
 1274              		@ frame_needed = 0, uses_anonymous_args = 0
 504:USB_DEVICE/Target/usbd_conf.c ****   HAL_StatusTypeDef hal_status = HAL_OK;
ARM GAS  /tmp/ccwvGOOK.s 			page 37


 1275              		.loc 1 504 1 is_stmt 0 view .LVU283
 1276 0000 08B5     		push	{r3, lr}
 1277              	.LCFI26:
 1278              		.cfi_def_cfa_offset 8
 1279              		.cfi_offset 3, -8
 1280              		.cfi_offset 14, -4
 505:USB_DEVICE/Target/usbd_conf.c ****   USBD_StatusTypeDef usb_status = USBD_OK;
 1281              		.loc 1 505 3 is_stmt 1 view .LVU284
 1282              	.LVL121:
 506:USB_DEVICE/Target/usbd_conf.c **** 
 1283              		.loc 1 506 3 view .LVU285
 508:USB_DEVICE/Target/usbd_conf.c **** 
 1284              		.loc 1 508 3 view .LVU286
 508:USB_DEVICE/Target/usbd_conf.c **** 
 1285              		.loc 1 508 16 is_stmt 0 view .LVU287
 1286 0002 D0F8C802 		ldr	r0, [r0, #712]
 1287              	.LVL122:
 508:USB_DEVICE/Target/usbd_conf.c **** 
 1288              		.loc 1 508 16 view .LVU288
 1289 0006 FFF7FEFF 		bl	HAL_PCD_EP_ClrStall
 1290              	.LVL123:
 510:USB_DEVICE/Target/usbd_conf.c **** 
 1291              		.loc 1 510 3 is_stmt 1 view .LVU289
 510:USB_DEVICE/Target/usbd_conf.c **** 
 1292              		.loc 1 510 17 is_stmt 0 view .LVU290
 1293 000a FFF7FEFF 		bl	USBD_Get_USB_Status
 1294              	.LVL124:
 512:USB_DEVICE/Target/usbd_conf.c **** }
 1295              		.loc 1 512 3 is_stmt 1 view .LVU291
 513:USB_DEVICE/Target/usbd_conf.c **** 
 1296              		.loc 1 513 1 is_stmt 0 view .LVU292
 1297 000e 08BD     		pop	{r3, pc}
 1298              		.cfi_endproc
 1299              	.LFE260:
 1301              		.section	.text.USBD_LL_SetUSBAddress,"ax",%progbits
 1302              		.align	1
 1303              		.global	USBD_LL_SetUSBAddress
 1304              		.syntax unified
 1305              		.thumb
 1306              		.thumb_func
 1307              		.fpu fpv4-sp-d16
 1309              	USBD_LL_SetUSBAddress:
 1310              	.LVL125:
 1311              	.LFB262:
 542:USB_DEVICE/Target/usbd_conf.c ****   HAL_StatusTypeDef hal_status = HAL_OK;
 1312              		.loc 1 542 1 is_stmt 1 view -0
 1313              		.cfi_startproc
 1314              		@ args = 0, pretend = 0, frame = 0
 1315              		@ frame_needed = 0, uses_anonymous_args = 0
 542:USB_DEVICE/Target/usbd_conf.c ****   HAL_StatusTypeDef hal_status = HAL_OK;
 1316              		.loc 1 542 1 is_stmt 0 view .LVU294
 1317 0000 08B5     		push	{r3, lr}
 1318              	.LCFI27:
 1319              		.cfi_def_cfa_offset 8
 1320              		.cfi_offset 3, -8
 1321              		.cfi_offset 14, -4
 543:USB_DEVICE/Target/usbd_conf.c ****   USBD_StatusTypeDef usb_status = USBD_OK;
ARM GAS  /tmp/ccwvGOOK.s 			page 38


 1322              		.loc 1 543 3 is_stmt 1 view .LVU295
 1323              	.LVL126:
 544:USB_DEVICE/Target/usbd_conf.c **** 
 1324              		.loc 1 544 3 view .LVU296
 546:USB_DEVICE/Target/usbd_conf.c **** 
 1325              		.loc 1 546 3 view .LVU297
 546:USB_DEVICE/Target/usbd_conf.c **** 
 1326              		.loc 1 546 16 is_stmt 0 view .LVU298
 1327 0002 D0F8C802 		ldr	r0, [r0, #712]
 1328              	.LVL127:
 546:USB_DEVICE/Target/usbd_conf.c **** 
 1329              		.loc 1 546 16 view .LVU299
 1330 0006 FFF7FEFF 		bl	HAL_PCD_SetAddress
 1331              	.LVL128:
 548:USB_DEVICE/Target/usbd_conf.c **** 
 1332              		.loc 1 548 3 is_stmt 1 view .LVU300
 548:USB_DEVICE/Target/usbd_conf.c **** 
 1333              		.loc 1 548 17 is_stmt 0 view .LVU301
 1334 000a FFF7FEFF 		bl	USBD_Get_USB_Status
 1335              	.LVL129:
 550:USB_DEVICE/Target/usbd_conf.c **** }
 1336              		.loc 1 550 3 is_stmt 1 view .LVU302
 551:USB_DEVICE/Target/usbd_conf.c **** 
 1337              		.loc 1 551 1 is_stmt 0 view .LVU303
 1338 000e 08BD     		pop	{r3, pc}
 1339              		.cfi_endproc
 1340              	.LFE262:
 1342              		.section	.text.USBD_LL_Transmit,"ax",%progbits
 1343              		.align	1
 1344              		.global	USBD_LL_Transmit
 1345              		.syntax unified
 1346              		.thumb
 1347              		.thumb_func
 1348              		.fpu fpv4-sp-d16
 1350              	USBD_LL_Transmit:
 1351              	.LVL130:
 1352              	.LFB263:
 562:USB_DEVICE/Target/usbd_conf.c ****   HAL_StatusTypeDef hal_status = HAL_OK;
 1353              		.loc 1 562 1 is_stmt 1 view -0
 1354              		.cfi_startproc
 1355              		@ args = 0, pretend = 0, frame = 0
 1356              		@ frame_needed = 0, uses_anonymous_args = 0
 562:USB_DEVICE/Target/usbd_conf.c ****   HAL_StatusTypeDef hal_status = HAL_OK;
 1357              		.loc 1 562 1 is_stmt 0 view .LVU305
 1358 0000 08B5     		push	{r3, lr}
 1359              	.LCFI28:
 1360              		.cfi_def_cfa_offset 8
 1361              		.cfi_offset 3, -8
 1362              		.cfi_offset 14, -4
 563:USB_DEVICE/Target/usbd_conf.c ****   USBD_StatusTypeDef usb_status = USBD_OK;
 1363              		.loc 1 563 3 is_stmt 1 view .LVU306
 1364              	.LVL131:
 564:USB_DEVICE/Target/usbd_conf.c **** 
 1365              		.loc 1 564 3 view .LVU307
 566:USB_DEVICE/Target/usbd_conf.c **** 
 1366              		.loc 1 566 3 view .LVU308
 566:USB_DEVICE/Target/usbd_conf.c **** 
ARM GAS  /tmp/ccwvGOOK.s 			page 39


 1367              		.loc 1 566 16 is_stmt 0 view .LVU309
 1368 0002 D0F8C802 		ldr	r0, [r0, #712]
 1369              	.LVL132:
 566:USB_DEVICE/Target/usbd_conf.c **** 
 1370              		.loc 1 566 16 view .LVU310
 1371 0006 FFF7FEFF 		bl	HAL_PCD_EP_Transmit
 1372              	.LVL133:
 568:USB_DEVICE/Target/usbd_conf.c **** 
 1373              		.loc 1 568 3 is_stmt 1 view .LVU311
 568:USB_DEVICE/Target/usbd_conf.c **** 
 1374              		.loc 1 568 17 is_stmt 0 view .LVU312
 1375 000a FFF7FEFF 		bl	USBD_Get_USB_Status
 1376              	.LVL134:
 570:USB_DEVICE/Target/usbd_conf.c **** }
 1377              		.loc 1 570 3 is_stmt 1 view .LVU313
 571:USB_DEVICE/Target/usbd_conf.c **** 
 1378              		.loc 1 571 1 is_stmt 0 view .LVU314
 1379 000e 08BD     		pop	{r3, pc}
 1380              		.cfi_endproc
 1381              	.LFE263:
 1383              		.section	.text.USBD_LL_PrepareReceive,"ax",%progbits
 1384              		.align	1
 1385              		.global	USBD_LL_PrepareReceive
 1386              		.syntax unified
 1387              		.thumb
 1388              		.thumb_func
 1389              		.fpu fpv4-sp-d16
 1391              	USBD_LL_PrepareReceive:
 1392              	.LVL135:
 1393              	.LFB264:
 582:USB_DEVICE/Target/usbd_conf.c ****   HAL_StatusTypeDef hal_status = HAL_OK;
 1394              		.loc 1 582 1 is_stmt 1 view -0
 1395              		.cfi_startproc
 1396              		@ args = 0, pretend = 0, frame = 0
 1397              		@ frame_needed = 0, uses_anonymous_args = 0
 582:USB_DEVICE/Target/usbd_conf.c ****   HAL_StatusTypeDef hal_status = HAL_OK;
 1398              		.loc 1 582 1 is_stmt 0 view .LVU316
 1399 0000 08B5     		push	{r3, lr}
 1400              	.LCFI29:
 1401              		.cfi_def_cfa_offset 8
 1402              		.cfi_offset 3, -8
 1403              		.cfi_offset 14, -4
 583:USB_DEVICE/Target/usbd_conf.c ****   USBD_StatusTypeDef usb_status = USBD_OK;
 1404              		.loc 1 583 3 is_stmt 1 view .LVU317
 1405              	.LVL136:
 584:USB_DEVICE/Target/usbd_conf.c **** 
 1406              		.loc 1 584 3 view .LVU318
 586:USB_DEVICE/Target/usbd_conf.c **** 
 1407              		.loc 1 586 3 view .LVU319
 586:USB_DEVICE/Target/usbd_conf.c **** 
 1408              		.loc 1 586 16 is_stmt 0 view .LVU320
 1409 0002 D0F8C802 		ldr	r0, [r0, #712]
 1410              	.LVL137:
 586:USB_DEVICE/Target/usbd_conf.c **** 
 1411              		.loc 1 586 16 view .LVU321
 1412 0006 FFF7FEFF 		bl	HAL_PCD_EP_Receive
 1413              	.LVL138:
ARM GAS  /tmp/ccwvGOOK.s 			page 40


 588:USB_DEVICE/Target/usbd_conf.c **** 
 1414              		.loc 1 588 3 is_stmt 1 view .LVU322
 588:USB_DEVICE/Target/usbd_conf.c **** 
 1415              		.loc 1 588 17 is_stmt 0 view .LVU323
 1416 000a FFF7FEFF 		bl	USBD_Get_USB_Status
 1417              	.LVL139:
 590:USB_DEVICE/Target/usbd_conf.c **** }
 1418              		.loc 1 590 3 is_stmt 1 view .LVU324
 591:USB_DEVICE/Target/usbd_conf.c **** 
 1419              		.loc 1 591 1 is_stmt 0 view .LVU325
 1420 000e 08BD     		pop	{r3, pc}
 1421              		.cfi_endproc
 1422              	.LFE264:
 1424              		.comm	hpcd_USB_OTG_FS,1292,4
 1425              		.section	.bss.mem.10873,"aw",%nobits
 1426              		.align	2
 1427              		.set	.LANCHOR0,. + 0
 1430              	mem.10873:
 1431 0000 00000000 		.space	544
 1431      00000000 
 1431      00000000 
 1431      00000000 
 1431      00000000 
 1432              		.text
 1433              	.Letext0:
 1434              		.file 2 "/usr/lib/gcc/arm-none-eabi/8.3.1/include/stdint.h"
 1435              		.file 3 "Drivers/CMSIS/Include/core_cm4.h"
 1436              		.file 4 "Drivers/CMSIS/Device/ST/STM32F4xx/Include/system_stm32f4xx.h"
 1437              		.file 5 "Drivers/CMSIS/Device/ST/STM32F4xx/Include/stm32f407xx.h"
 1438              		.file 6 "Drivers/CMSIS/Device/ST/STM32F4xx/Include/stm32f4xx.h"
 1439              		.file 7 "Drivers/STM32F4xx_HAL_Driver/Inc/stm32f4xx_hal_def.h"
 1440              		.file 8 "Drivers/STM32F4xx_HAL_Driver/Inc/stm32f4xx_hal_gpio.h"
 1441              		.file 9 "Drivers/STM32F4xx_HAL_Driver/Inc/stm32f4xx_ll_usb.h"
 1442              		.file 10 "Drivers/STM32F4xx_HAL_Driver/Inc/stm32f4xx_hal_pcd.h"
 1443              		.file 11 "Drivers/STM32F4xx_HAL_Driver/Inc/stm32f4xx_hal.h"
 1444              		.file 12 "/usr/lib/gcc/arm-none-eabi/8.3.1/include/stddef.h"
 1445              		.file 13 "/usr/include/newlib/sys/_types.h"
 1446              		.file 14 "/usr/include/newlib/sys/reent.h"
 1447              		.file 15 "/usr/include/newlib/sys/lock.h"
 1448              		.file 16 "/usr/include/newlib/stdlib.h"
 1449              		.file 17 "Middlewares/ST/STM32_USB_Device_Library/Core/Inc/usbd_def.h"
 1450              		.file 18 "Middlewares/ST/STM32_USB_Device_Library/Class/CDC/Inc/usbd_cdc.h"
 1451              		.file 19 "Drivers/STM32F4xx_HAL_Driver/Inc/stm32f4xx_hal_pcd_ex.h"
 1452              		.file 20 "Middlewares/ST/STM32_USB_Device_Library/Core/Inc/usbd_core.h"
 1453              		.file 21 "Drivers/STM32F4xx_HAL_Driver/Inc/stm32f4xx_hal_cortex.h"
ARM GAS  /tmp/ccwvGOOK.s 			page 41

